
Atmega328.elf:     file format elf32-avr

Sections:
Idx Name          Size      VMA       LMA       File off  Algn
  0 .data         00000052  00800100  0000203c  000020d0  2**0
                  CONTENTS, ALLOC, LOAD, DATA
  1 .text         0000203c  00000000  00000000  00000094  2**1
                  CONTENTS, ALLOC, LOAD, READONLY, CODE
  2 .bss          000001cc  00800152  00800152  00002122  2**0
                  ALLOC
  3 .comment      00000030  00000000  00000000  00002122  2**0
                  CONTENTS, READONLY
  4 .note.gnu.avr.deviceinfo 0000003c  00000000  00000000  00002154  2**2
                  CONTENTS, READONLY
  5 .debug_aranges 00000328  00000000  00000000  00002190  2**0
                  CONTENTS, READONLY, DEBUGGING
  6 .debug_info   0000b232  00000000  00000000  000024b8  2**0
                  CONTENTS, READONLY, DEBUGGING
  7 .debug_abbrev 00001701  00000000  00000000  0000d6ea  2**0
                  CONTENTS, READONLY, DEBUGGING
  8 .debug_line   00002668  00000000  00000000  0000edeb  2**0
                  CONTENTS, READONLY, DEBUGGING
  9 .debug_frame  00000808  00000000  00000000  00011454  2**2
                  CONTENTS, READONLY, DEBUGGING
 10 .debug_str    000013d4  00000000  00000000  00011c5c  2**0
                  CONTENTS, READONLY, DEBUGGING
 11 .debug_loc    00001fe8  00000000  00000000  00013030  2**0
                  CONTENTS, READONLY, DEBUGGING
 12 .debug_ranges 00000298  00000000  00000000  00015018  2**0
                  CONTENTS, READONLY, DEBUGGING

Disassembly of section .text:

00000000 <__vectors>:
       0:	0c 94 55 00 	jmp	0xaa	; 0xaa <__ctors_end>
       4:	0c 94 72 00 	jmp	0xe4	; 0xe4 <__bad_interrupt>
       8:	0c 94 72 00 	jmp	0xe4	; 0xe4 <__bad_interrupt>
       c:	0c 94 72 00 	jmp	0xe4	; 0xe4 <__bad_interrupt>
      10:	0c 94 72 00 	jmp	0xe4	; 0xe4 <__bad_interrupt>
      14:	0c 94 72 00 	jmp	0xe4	; 0xe4 <__bad_interrupt>
      18:	0c 94 72 00 	jmp	0xe4	; 0xe4 <__bad_interrupt>
      1c:	0c 94 72 00 	jmp	0xe4	; 0xe4 <__bad_interrupt>
      20:	0c 94 72 00 	jmp	0xe4	; 0xe4 <__bad_interrupt>
      24:	0c 94 72 00 	jmp	0xe4	; 0xe4 <__bad_interrupt>
      28:	0c 94 72 00 	jmp	0xe4	; 0xe4 <__bad_interrupt>
      2c:	0c 94 72 00 	jmp	0xe4	; 0xe4 <__bad_interrupt>
      30:	0c 94 72 00 	jmp	0xe4	; 0xe4 <__bad_interrupt>
      34:	0c 94 72 00 	jmp	0xe4	; 0xe4 <__bad_interrupt>
      38:	0c 94 72 00 	jmp	0xe4	; 0xe4 <__bad_interrupt>
      3c:	0c 94 72 00 	jmp	0xe4	; 0xe4 <__bad_interrupt>
      40:	0c 94 72 00 	jmp	0xe4	; 0xe4 <__bad_interrupt>
      44:	0c 94 72 00 	jmp	0xe4	; 0xe4 <__bad_interrupt>
      48:	0c 94 13 0c 	jmp	0x1826	; 0x1826 <__vector_18>
      4c:	0c 94 47 0c 	jmp	0x188e	; 0x188e <__vector_19>
      50:	0c 94 72 00 	jmp	0xe4	; 0xe4 <__bad_interrupt>
      54:	0c 94 ad 01 	jmp	0x35a	; 0x35a <__vector_21>
      58:	0c 94 72 00 	jmp	0xe4	; 0xe4 <__bad_interrupt>
      5c:	0c 94 72 00 	jmp	0xe4	; 0xe4 <__bad_interrupt>
      60:	0c 94 72 00 	jmp	0xe4	; 0xe4 <__bad_interrupt>
      64:	0c 94 72 00 	jmp	0xe4	; 0xe4 <__bad_interrupt>
      68:	d4 06       	cpc	r13, r20
      6a:	d8 06       	cpc	r13, r24
      6c:	dc 06       	cpc	r13, r28
      6e:	e0 06       	cpc	r14, r16
      70:	e4 06       	cpc	r14, r20
      72:	e8 06       	cpc	r14, r24
      74:	ec 06       	cpc	r14, r28
      76:	50 07       	cpc	r21, r16
      78:	56 07       	cpc	r21, r22
      7a:	5c 07       	cpc	r21, r28
      7c:	62 07       	cpc	r22, r18
      7e:	68 07       	cpc	r22, r24
      80:	71 07       	cpc	r23, r17
      82:	7a 07       	cpc	r23, r26
      84:	83 07       	cpc	r24, r19
      86:	89 07       	cpc	r24, r25
      88:	92 07       	cpc	r25, r18
      8a:	9b 07       	cpc	r25, r27
      8c:	a4 07       	cpc	r26, r20
      8e:	aa 07       	cpc	r26, r26
      90:	b3 07       	cpc	r27, r19
      92:	bc 07       	cpc	r27, r28
      94:	db 07       	cpc	r29, r27
      96:	df 07       	cpc	r29, r31
      98:	e3 07       	cpc	r30, r19
      9a:	e7 07       	cpc	r30, r23
      9c:	eb 07       	cpc	r30, r27
      9e:	ef 07       	cpc	r30, r31
      a0:	f3 07       	cpc	r31, r19
      a2:	f7 07       	cpc	r31, r23
      a4:	fb 07       	cpc	r31, r27
      a6:	ff 07       	cpc	r31, r31
      a8:	03 08       	sbc	r0, r3

000000aa <__ctors_end>:
      aa:	11 24       	eor	r1, r1
      ac:	1f be       	out	0x3f, r1	; 63
      ae:	cf ef       	ldi	r28, 0xFF	; 255
      b0:	d8 e0       	ldi	r29, 0x08	; 8
      b2:	de bf       	out	0x3e, r29	; 62
      b4:	cd bf       	out	0x3d, r28	; 61

000000b6 <__do_copy_data>:
      b6:	11 e0       	ldi	r17, 0x01	; 1
      b8:	a0 e0       	ldi	r26, 0x00	; 0
      ba:	b1 e0       	ldi	r27, 0x01	; 1
      bc:	ec e3       	ldi	r30, 0x3C	; 60
      be:	f0 e2       	ldi	r31, 0x20	; 32
      c0:	02 c0       	rjmp	.+4      	; 0xc6 <__do_copy_data+0x10>
      c2:	05 90       	lpm	r0, Z+
      c4:	0d 92       	st	X+, r0
      c6:	a2 35       	cpi	r26, 0x52	; 82
      c8:	b1 07       	cpc	r27, r17
      ca:	d9 f7       	brne	.-10     	; 0xc2 <__do_copy_data+0xc>

000000cc <__do_clear_bss>:
      cc:	23 e0       	ldi	r18, 0x03	; 3
      ce:	a2 e5       	ldi	r26, 0x52	; 82
      d0:	b1 e0       	ldi	r27, 0x01	; 1
      d2:	01 c0       	rjmp	.+2      	; 0xd6 <.do_clear_bss_start>

000000d4 <.do_clear_bss_loop>:
      d4:	1d 92       	st	X+, r1

000000d6 <.do_clear_bss_start>:
      d6:	ae 31       	cpi	r26, 0x1E	; 30
      d8:	b2 07       	cpc	r27, r18
      da:	e1 f7       	brne	.-8      	; 0xd4 <.do_clear_bss_loop>
      dc:	0e 94 aa 0f 	call	0x1f54	; 0x1f54 <main>
      e0:	0c 94 1c 10 	jmp	0x2038	; 0x2038 <_exit>

000000e4 <__bad_interrupt>:
      e4:	0c 94 00 00 	jmp	0	; 0x0 <__vectors>

000000e8 <ANALOG_read>:
int ANALOG_read(int selection)
// Returns selected Channel ADC_VALUE
{
	uint8_t ADSC_FLAG;
	ADSC_FLAG = (1 << ADSC);
	if( !(analogmega328.adc.reg->adcsra & ADSC_FLAG) ){
      e8:	e0 91 82 01 	lds	r30, 0x0182	; 0x800182 <analogmega328+0x4>
      ec:	f0 91 83 01 	lds	r31, 0x0183	; 0x800183 <analogmega328+0x5>
      f0:	22 81       	ldd	r18, Z+2	; 0x02
      f2:	26 fd       	sbrc	r18, 6
      f4:	02 c0       	rjmp	.+4      	; 0xfa <ANALOG_read+0x12>
		//ADC_SELECT
		analogmega328.adc.reg->adcsra |= (1 << ADSC);
      f6:	20 64       	ori	r18, 0x40	; 64
      f8:	22 83       	std	Z+2, r18	; 0x02
	}	
	return ADC_VALUE[selection];
      fa:	fc 01       	movw	r30, r24
      fc:	ee 0f       	add	r30, r30
      fe:	ff 1f       	adc	r31, r31
     100:	e5 59       	subi	r30, 0x95	; 149
     102:	fe 4f       	sbci	r31, 0xFE	; 254
     104:	80 81       	ld	r24, Z
     106:	91 81       	ldd	r25, Z+1	; 0x01
}
     108:	08 95       	ret

0000010a <ANALOGenable>:

/*** Procedure & Function ***/
ANALOG ANALOGenable( uint8_t Vreff, uint8_t Divfactor, int n_channel, ... )
// Interrupt running mode setup
// setup, and list of channels to be probed
{
     10a:	ef 92       	push	r14
     10c:	ff 92       	push	r15
     10e:	0f 93       	push	r16
     110:	1f 93       	push	r17
     112:	cf 93       	push	r28
     114:	df 93       	push	r29
     116:	cd b7       	in	r28, 0x3d	; 61
     118:	de b7       	in	r29, 0x3e	; 62
     11a:	ee 97       	sbiw	r28, 0x3e	; 62
     11c:	0f b6       	in	r0, 0x3f	; 63
     11e:	f8 94       	cli
     120:	de bf       	out	0x3e, r29	; 62
     122:	0f be       	out	0x3f, r0	; 63
     124:	cd bf       	out	0x3d, r28	; 61
     126:	28 96       	adiw	r28, 0x08	; 8
     128:	0f ad       	ldd	r16, Y+63	; 0x3f
     12a:	28 97       	sbiw	r28, 0x08	; 8
     12c:	29 96       	adiw	r28, 0x09	; 9
     12e:	1f ad       	ldd	r17, Y+63	; 0x3f
     130:	29 97       	sbiw	r28, 0x09	; 9
     132:	2b 96       	adiw	r28, 0x0b	; 11
     134:	ee ac       	ldd	r14, Y+62	; 0x3e
     136:	ff ac       	ldd	r15, Y+63	; 0x3f
     138:	2b 97       	sbiw	r28, 0x0b	; 11
	uint8_t tSREG;
	analogmega328 = ATMEGA328enable();
     13a:	ce 01       	movw	r24, r28
     13c:	01 96       	adiw	r24, 0x01	; 1
     13e:	0e 94 17 03 	call	0x62e	; 0x62e <ATMEGA328enable>
     142:	8e e3       	ldi	r24, 0x3E	; 62
     144:	fe 01       	movw	r30, r28
     146:	31 96       	adiw	r30, 0x01	; 1
     148:	ae e7       	ldi	r26, 0x7E	; 126
     14a:	b1 e0       	ldi	r27, 0x01	; 1
     14c:	01 90       	ld	r0, Z+
     14e:	0d 92       	st	X+, r0
     150:	8a 95       	dec	r24
     152:	e1 f7       	brne	.-8      	; 0x14c <ANALOGenable+0x42>
	va_list list;
	int i;

	tSREG = analogmega328.cpu.reg->sreg;
     154:	ee e7       	ldi	r30, 0x7E	; 126
     156:	f1 e0       	ldi	r31, 0x01	; 1
     158:	a0 85       	ldd	r26, Z+8	; 0x08
     15a:	b1 85       	ldd	r27, Z+9	; 0x09
     15c:	91 96       	adiw	r26, 0x21	; 33
     15e:	4c 91       	ld	r20, X
     160:	91 97       	sbiw	r26, 0x21	; 33
	analogmega328.cpu.reg->sreg &= ~ (1 << GLOBAL_INTERRUPT_ENABLE);
     162:	84 2f       	mov	r24, r20
     164:	8f 77       	andi	r24, 0x7F	; 127
     166:	91 96       	adiw	r26, 0x21	; 33
     168:	8c 93       	st	X, r24
	
	ADC_N_CHANNEL = n_channel;
     16a:	f0 92 5a 01 	sts	0x015A, r15	; 0x80015a <ADC_N_CHANNEL+0x1>
     16e:	e0 92 59 01 	sts	0x0159, r14	; 0x800159 <ADC_N_CHANNEL>
	ADC_SELECTOR = 0;
     172:	10 92 58 01 	sts	0x0158, r1	; 0x800158 <ADC_SELECTOR+0x1>
     176:	10 92 57 01 	sts	0x0157, r1	; 0x800157 <ADC_SELECTOR>
	adc_n_sample = 0;
     17a:	10 92 52 01 	sts	0x0152, r1	; 0x800152 <__data_end>

	ANALOG analog;
	//Vtable
	analog.read = ANALOG_read;
	
	analogmega328.adc.reg->admux &= ~(3 << REFS0);
     17e:	04 80       	ldd	r0, Z+4	; 0x04
     180:	f5 81       	ldd	r31, Z+5	; 0x05
     182:	e0 2d       	mov	r30, r0
     184:	84 81       	ldd	r24, Z+4	; 0x04
     186:	8f 73       	andi	r24, 0x3F	; 63
     188:	84 83       	std	Z+4, r24	; 0x04
	switch( Vreff ){
     18a:	01 30       	cpi	r16, 0x01	; 1
     18c:	19 f0       	breq	.+6      	; 0x194 <ANALOGenable+0x8a>
     18e:	03 30       	cpi	r16, 0x03	; 3
     190:	51 f0       	breq	.+20     	; 0x1a6 <ANALOGenable+0x9c>
     192:	12 c0       	rjmp	.+36     	; 0x1b8 <ANALOGenable+0xae>
		case 0:
			analog.VREFF = 0;
		break;
		case 1:
			analogmega328.adc.reg->admux |=	(1 << REFS0);
     194:	e0 91 82 01 	lds	r30, 0x0182	; 0x800182 <analogmega328+0x4>
     198:	f0 91 83 01 	lds	r31, 0x0183	; 0x800183 <analogmega328+0x5>
     19c:	84 81       	ldd	r24, Z+4	; 0x04
     19e:	80 64       	ori	r24, 0x40	; 64
     1a0:	84 83       	std	Z+4, r24	; 0x04
			analog.VREFF = 1;
     1a2:	51 e0       	ldi	r21, 0x01	; 1
		break;
     1a4:	0a c0       	rjmp	.+20     	; 0x1ba <ANALOGenable+0xb0>
		case 3:
			analogmega328.adc.reg->admux |=	(3 << REFS0);
     1a6:	e0 91 82 01 	lds	r30, 0x0182	; 0x800182 <analogmega328+0x4>
     1aa:	f0 91 83 01 	lds	r31, 0x0183	; 0x800183 <analogmega328+0x5>
     1ae:	84 81       	ldd	r24, Z+4	; 0x04
     1b0:	80 6c       	ori	r24, 0xC0	; 192
     1b2:	84 83       	std	Z+4, r24	; 0x04
			analog.VREFF = 3;
     1b4:	53 e0       	ldi	r21, 0x03	; 3
		break;
     1b6:	01 c0       	rjmp	.+2      	; 0x1ba <ANALOGenable+0xb0>
	analog.read = ANALOG_read;
	
	analogmega328.adc.reg->admux &= ~(3 << REFS0);
	switch( Vreff ){
		case 0:
			analog.VREFF = 0;
     1b8:	50 e0       	ldi	r21, 0x00	; 0
		default:
			analog.VREFF = 0;
		break;
	}
	
	analogmega328.adc.reg->admux &= ~(1 << ADLAR);
     1ba:	e0 91 82 01 	lds	r30, 0x0182	; 0x800182 <analogmega328+0x4>
     1be:	f0 91 83 01 	lds	r31, 0x0183	; 0x800183 <analogmega328+0x5>
     1c2:	84 81       	ldd	r24, Z+4	; 0x04
     1c4:	8f 7d       	andi	r24, 0xDF	; 223
     1c6:	84 83       	std	Z+4, r24	; 0x04
	
	va_start(list, n_channel);
	for( i = 0; i < n_channel; i++ ){
     1c8:	1e 14       	cp	r1, r14
     1ca:	1f 04       	cpc	r1, r15
     1cc:	94 f4       	brge	.+36     	; 0x1f2 <ANALOGenable+0xe8>
     1ce:	de 01       	movw	r26, r28
     1d0:	a5 5b       	subi	r26, 0xB5	; 181
     1d2:	bf 4f       	sbci	r27, 0xFF	; 255
     1d4:	80 e0       	ldi	r24, 0x00	; 0
     1d6:	90 e0       	ldi	r25, 0x00	; 0
		ADC_CHANNEL_GAIN[i] = va_arg(list, int);
     1d8:	2d 91       	ld	r18, X+
     1da:	3d 91       	ld	r19, X+
     1dc:	fc 01       	movw	r30, r24
     1de:	ee 0f       	add	r30, r30
     1e0:	ff 1f       	adc	r31, r31
     1e2:	e5 5a       	subi	r30, 0xA5	; 165
     1e4:	fe 4f       	sbci	r31, 0xFE	; 254
     1e6:	31 83       	std	Z+1, r19	; 0x01
     1e8:	20 83       	st	Z, r18
	}
	
	analogmega328.adc.reg->admux &= ~(1 << ADLAR);
	
	va_start(list, n_channel);
	for( i = 0; i < n_channel; i++ ){
     1ea:	01 96       	adiw	r24, 0x01	; 1
     1ec:	e8 16       	cp	r14, r24
     1ee:	f9 06       	cpc	r15, r25
     1f0:	99 f7       	brne	.-26     	; 0x1d8 <ANALOGenable+0xce>
		ADC_CHANNEL_GAIN[i] = va_arg(list, int);
	}
	va_end(list);
	analogmega328.adc.reg->admux &= ~MUX_MASK;
     1f2:	ee e7       	ldi	r30, 0x7E	; 126
     1f4:	f1 e0       	ldi	r31, 0x01	; 1
     1f6:	a4 81       	ldd	r26, Z+4	; 0x04
     1f8:	b5 81       	ldd	r27, Z+5	; 0x05
     1fa:	14 96       	adiw	r26, 0x04	; 4
     1fc:	8c 91       	ld	r24, X
     1fe:	14 97       	sbiw	r26, 0x04	; 4
     200:	80 7f       	andi	r24, 0xF0	; 240
     202:	14 96       	adiw	r26, 0x04	; 4
     204:	8c 93       	st	X, r24
	analogmega328.adc.reg->admux |= (MUX_MASK & ADC_CHANNEL_GAIN[ADC_SELECTOR]);
     206:	a0 91 57 01 	lds	r26, 0x0157	; 0x800157 <ADC_SELECTOR>
     20a:	b0 91 58 01 	lds	r27, 0x0158	; 0x800158 <ADC_SELECTOR+0x1>
     20e:	aa 0f       	add	r26, r26
     210:	bb 1f       	adc	r27, r27
     212:	a5 5a       	subi	r26, 0xA5	; 165
     214:	be 4f       	sbci	r27, 0xFE	; 254
     216:	8d 91       	ld	r24, X+
     218:	9c 91       	ld	r25, X
     21a:	a4 81       	ldd	r26, Z+4	; 0x04
     21c:	b5 81       	ldd	r27, Z+5	; 0x05
     21e:	8f 70       	andi	r24, 0x0F	; 15
     220:	99 27       	eor	r25, r25
     222:	14 96       	adiw	r26, 0x04	; 4
     224:	9c 91       	ld	r25, X
     226:	14 97       	sbiw	r26, 0x04	; 4
     228:	89 2b       	or	r24, r25
     22a:	14 96       	adiw	r26, 0x04	; 4
     22c:	8c 93       	st	X, r24
	
	analogmega328.adc.reg->adcsra |= (1 << ADEN);
     22e:	a4 81       	ldd	r26, Z+4	; 0x04
     230:	b5 81       	ldd	r27, Z+5	; 0x05
     232:	12 96       	adiw	r26, 0x02	; 2
     234:	8c 91       	ld	r24, X
     236:	12 97       	sbiw	r26, 0x02	; 2
     238:	80 68       	ori	r24, 0x80	; 128
     23a:	12 96       	adiw	r26, 0x02	; 2
     23c:	8c 93       	st	X, r24
	analogmega328.adc.reg->adcsra |= (1 << ADSC);
     23e:	a4 81       	ldd	r26, Z+4	; 0x04
     240:	b5 81       	ldd	r27, Z+5	; 0x05
     242:	12 96       	adiw	r26, 0x02	; 2
     244:	8c 91       	ld	r24, X
     246:	12 97       	sbiw	r26, 0x02	; 2
     248:	80 64       	ori	r24, 0x40	; 64
     24a:	12 96       	adiw	r26, 0x02	; 2
     24c:	8c 93       	st	X, r24
	analogmega328.adc.reg->adcsra &= ~(1 << ADATE);
     24e:	a4 81       	ldd	r26, Z+4	; 0x04
     250:	b5 81       	ldd	r27, Z+5	; 0x05
     252:	12 96       	adiw	r26, 0x02	; 2
     254:	8c 91       	ld	r24, X
     256:	12 97       	sbiw	r26, 0x02	; 2
     258:	8f 7d       	andi	r24, 0xDF	; 223
     25a:	12 96       	adiw	r26, 0x02	; 2
     25c:	8c 93       	st	X, r24
	analogmega328.adc.reg->adscrb &= ~(7 << ADTS0);
     25e:	a4 81       	ldd	r26, Z+4	; 0x04
     260:	b5 81       	ldd	r27, Z+5	; 0x05
     262:	13 96       	adiw	r26, 0x03	; 3
     264:	8c 91       	ld	r24, X
     266:	13 97       	sbiw	r26, 0x03	; 3
     268:	88 7f       	andi	r24, 0xF8	; 248
     26a:	13 96       	adiw	r26, 0x03	; 3
     26c:	8c 93       	st	X, r24
	analogmega328.adc.reg->adcsra |= (1 << ADIE);
     26e:	a4 81       	ldd	r26, Z+4	; 0x04
     270:	b5 81       	ldd	r27, Z+5	; 0x05
     272:	12 96       	adiw	r26, 0x02	; 2
     274:	8c 91       	ld	r24, X
     276:	12 97       	sbiw	r26, 0x02	; 2
     278:	88 60       	ori	r24, 0x08	; 8
     27a:	12 96       	adiw	r26, 0x02	; 2
     27c:	8c 93       	st	X, r24
	
	analogmega328.adc.reg->adcsra &= ~(7 << ADPS0);
     27e:	04 80       	ldd	r0, Z+4	; 0x04
     280:	f5 81       	ldd	r31, Z+5	; 0x05
     282:	e0 2d       	mov	r30, r0
     284:	82 81       	ldd	r24, Z+2	; 0x02
     286:	88 7f       	andi	r24, 0xF8	; 248
     288:	82 83       	std	Z+2, r24	; 0x02
	switch( Divfactor ){
     28a:	10 31       	cpi	r17, 0x10	; 16
     28c:	09 f1       	breq	.+66     	; 0x2d0 <ANALOGenable+0x1c6>
     28e:	38 f4       	brcc	.+14     	; 0x29e <ANALOGenable+0x194>
     290:	14 30       	cpi	r17, 0x04	; 4
     292:	61 f0       	breq	.+24     	; 0x2ac <ANALOGenable+0x1a2>
     294:	18 30       	cpi	r17, 0x08	; 8
     296:	99 f0       	breq	.+38     	; 0x2be <ANALOGenable+0x1b4>
     298:	12 30       	cpi	r17, 0x02	; 2
     29a:	f1 f5       	brne	.+124    	; 0x318 <ANALOGenable+0x20e>
     29c:	46 c0       	rjmp	.+140    	; 0x32a <ANALOGenable+0x220>
     29e:	10 34       	cpi	r17, 0x40	; 64
     2a0:	49 f1       	breq	.+82     	; 0x2f4 <ANALOGenable+0x1ea>
     2a2:	10 38       	cpi	r17, 0x80	; 128
     2a4:	81 f1       	breq	.+96     	; 0x306 <ANALOGenable+0x1fc>
     2a6:	10 32       	cpi	r17, 0x20	; 32
     2a8:	b9 f5       	brne	.+110    	; 0x318 <ANALOGenable+0x20e>
     2aa:	1b c0       	rjmp	.+54     	; 0x2e2 <ANALOGenable+0x1d8>
		case 2: // 1
			analog.DIVISION_FACTOR = 2;
		break;
		case 4: // 2
			analogmega328.adc.reg->adcsra |= (1 << ADPS1);
     2ac:	e0 91 82 01 	lds	r30, 0x0182	; 0x800182 <analogmega328+0x4>
     2b0:	f0 91 83 01 	lds	r31, 0x0183	; 0x800183 <analogmega328+0x5>
     2b4:	82 81       	ldd	r24, Z+2	; 0x02
     2b6:	82 60       	ori	r24, 0x02	; 2
     2b8:	82 83       	std	Z+2, r24	; 0x02
			analog.DIVISION_FACTOR = 4;
     2ba:	24 e0       	ldi	r18, 0x04	; 4
		break;
     2bc:	37 c0       	rjmp	.+110    	; 0x32c <ANALOGenable+0x222>
		case 8: // 3
			analogmega328.adc.reg->adcsra |= (3 << ADPS0);
     2be:	e0 91 82 01 	lds	r30, 0x0182	; 0x800182 <analogmega328+0x4>
     2c2:	f0 91 83 01 	lds	r31, 0x0183	; 0x800183 <analogmega328+0x5>
     2c6:	82 81       	ldd	r24, Z+2	; 0x02
     2c8:	83 60       	ori	r24, 0x03	; 3
     2ca:	82 83       	std	Z+2, r24	; 0x02
			analog.DIVISION_FACTOR = 8;
     2cc:	28 e0       	ldi	r18, 0x08	; 8
		break;
     2ce:	2e c0       	rjmp	.+92     	; 0x32c <ANALOGenable+0x222>
		case 16: // 4
			analogmega328.adc.reg->adcsra |= (1 << ADPS2);
     2d0:	e0 91 82 01 	lds	r30, 0x0182	; 0x800182 <analogmega328+0x4>
     2d4:	f0 91 83 01 	lds	r31, 0x0183	; 0x800183 <analogmega328+0x5>
     2d8:	82 81       	ldd	r24, Z+2	; 0x02
     2da:	84 60       	ori	r24, 0x04	; 4
     2dc:	82 83       	std	Z+2, r24	; 0x02
			analog.DIVISION_FACTOR	=	16;
     2de:	20 e1       	ldi	r18, 0x10	; 16
		break;
     2e0:	25 c0       	rjmp	.+74     	; 0x32c <ANALOGenable+0x222>
		case 32: // 5
			analogmega328.adc.reg->adcsra |= (5 << ADPS0);
     2e2:	e0 91 82 01 	lds	r30, 0x0182	; 0x800182 <analogmega328+0x4>
     2e6:	f0 91 83 01 	lds	r31, 0x0183	; 0x800183 <analogmega328+0x5>
     2ea:	82 81       	ldd	r24, Z+2	; 0x02
     2ec:	85 60       	ori	r24, 0x05	; 5
     2ee:	82 83       	std	Z+2, r24	; 0x02
			analog.DIVISION_FACTOR = 32;
     2f0:	20 e2       	ldi	r18, 0x20	; 32
		break;
     2f2:	1c c0       	rjmp	.+56     	; 0x32c <ANALOGenable+0x222>
		case 64: // 6
			analogmega328.adc.reg->adcsra |= (6 << ADPS0);
     2f4:	e0 91 82 01 	lds	r30, 0x0182	; 0x800182 <analogmega328+0x4>
     2f8:	f0 91 83 01 	lds	r31, 0x0183	; 0x800183 <analogmega328+0x5>
     2fc:	82 81       	ldd	r24, Z+2	; 0x02
     2fe:	86 60       	ori	r24, 0x06	; 6
     300:	82 83       	std	Z+2, r24	; 0x02
			analog.DIVISION_FACTOR = 64;
     302:	20 e4       	ldi	r18, 0x40	; 64
		break;
     304:	13 c0       	rjmp	.+38     	; 0x32c <ANALOGenable+0x222>
		case 128: // 7
			analogmega328.adc.reg->adcsra |= (7 << ADPS0);
     306:	e0 91 82 01 	lds	r30, 0x0182	; 0x800182 <analogmega328+0x4>
     30a:	f0 91 83 01 	lds	r31, 0x0183	; 0x800183 <analogmega328+0x5>
     30e:	82 81       	ldd	r24, Z+2	; 0x02
     310:	87 60       	ori	r24, 0x07	; 7
     312:	82 83       	std	Z+2, r24	; 0x02
			analog.DIVISION_FACTOR = 128;
     314:	20 e8       	ldi	r18, 0x80	; 128
		break;
     316:	0a c0       	rjmp	.+20     	; 0x32c <ANALOGenable+0x222>
		default:
			analogmega328.adc.reg->adcsra |= (7 << ADPS0);
     318:	e0 91 82 01 	lds	r30, 0x0182	; 0x800182 <analogmega328+0x4>
     31c:	f0 91 83 01 	lds	r31, 0x0183	; 0x800183 <analogmega328+0x5>
     320:	82 81       	ldd	r24, Z+2	; 0x02
     322:	87 60       	ori	r24, 0x07	; 7
     324:	82 83       	std	Z+2, r24	; 0x02
			analog.DIVISION_FACTOR = 128;
     326:	20 e8       	ldi	r18, 0x80	; 128
		break;
     328:	01 c0       	rjmp	.+2      	; 0x32c <ANALOGenable+0x222>
	analogmega328.adc.reg->adcsra |= (1 << ADIE);
	
	analogmega328.adc.reg->adcsra &= ~(7 << ADPS0);
	switch( Divfactor ){
		case 2: // 1
			analog.DIVISION_FACTOR = 2;
     32a:	22 e0       	ldi	r18, 0x02	; 2
			analogmega328.adc.reg->adcsra |= (7 << ADPS0);
			analog.DIVISION_FACTOR = 128;
		break;
	}
	analogmega328.cpu.reg->sreg = tSREG;
	analogmega328.cpu.reg->sreg |= (1 << GLOBAL_INTERRUPT_ENABLE);
     32c:	e0 91 86 01 	lds	r30, 0x0186	; 0x800186 <analogmega328+0x8>
     330:	f0 91 87 01 	lds	r31, 0x0187	; 0x800187 <analogmega328+0x9>
     334:	40 68       	ori	r20, 0x80	; 128
     336:	41 a3       	std	Z+33, r20	; 0x21
	
	return analog;
     338:	65 2f       	mov	r22, r21
     33a:	72 2f       	mov	r23, r18
     33c:	84 e7       	ldi	r24, 0x74	; 116
     33e:	90 e0       	ldi	r25, 0x00	; 0
}
     340:	ee 96       	adiw	r28, 0x3e	; 62
     342:	0f b6       	in	r0, 0x3f	; 63
     344:	f8 94       	cli
     346:	de bf       	out	0x3e, r29	; 62
     348:	0f be       	out	0x3f, r0	; 63
     34a:	cd bf       	out	0x3d, r28	; 61
     34c:	df 91       	pop	r29
     34e:	cf 91       	pop	r28
     350:	1f 91       	pop	r17
     352:	0f 91       	pop	r16
     354:	ff 90       	pop	r15
     356:	ef 90       	pop	r14
     358:	08 95       	ret

0000035a <__vector_21>:

/*** File Interrupt ***/
ISR(ANALOG_INTERRUPT)
// Function: ANALOG interrupt
// Purpose:  Read Analog Input
{
     35a:	1f 92       	push	r1
     35c:	0f 92       	push	r0
     35e:	0f b6       	in	r0, 0x3f	; 63
     360:	0f 92       	push	r0
     362:	11 24       	eor	r1, r1
     364:	2f 93       	push	r18
     366:	3f 93       	push	r19
     368:	8f 93       	push	r24
     36a:	9f 93       	push	r25
     36c:	af 93       	push	r26
     36e:	bf 93       	push	r27
     370:	ef 93       	push	r30
     372:	ff 93       	push	r31
	adc_tmp = ADCL;
     374:	80 91 78 00 	lds	r24, 0x0078	; 0x800078 <__DATA_REGION_ORIGIN__+0x18>
     378:	90 e0       	ldi	r25, 0x00	; 0
     37a:	90 93 54 01 	sts	0x0154, r25	; 0x800154 <adc_tmp+0x1>
     37e:	80 93 53 01 	sts	0x0153, r24	; 0x800153 <adc_tmp>
	adc_tmp |= (ADCH << 8);
     382:	20 91 79 00 	lds	r18, 0x0079	; 0x800079 <__DATA_REGION_ORIGIN__+0x19>
     386:	80 91 53 01 	lds	r24, 0x0153	; 0x800153 <adc_tmp>
     38a:	90 91 54 01 	lds	r25, 0x0154	; 0x800154 <adc_tmp+0x1>
     38e:	92 2b       	or	r25, r18
     390:	90 93 54 01 	sts	0x0154, r25	; 0x800154 <adc_tmp+0x1>
     394:	80 93 53 01 	sts	0x0153, r24	; 0x800153 <adc_tmp>
	if(adc_n_sample < (1 << ADC_NUMBER_SAMPLE)){
     398:	80 91 52 01 	lds	r24, 0x0152	; 0x800152 <__data_end>
     39c:	84 30       	cpi	r24, 0x04	; 4
     39e:	a0 f4       	brcc	.+40     	; 0x3c8 <__vector_21+0x6e>
		adc_n_sample++;
     3a0:	80 91 52 01 	lds	r24, 0x0152	; 0x800152 <__data_end>
     3a4:	8f 5f       	subi	r24, 0xFF	; 255
     3a6:	80 93 52 01 	sts	0x0152, r24	; 0x800152 <__data_end>
		adc_sample += adc_tmp;
     3aa:	20 91 53 01 	lds	r18, 0x0153	; 0x800153 <adc_tmp>
     3ae:	30 91 54 01 	lds	r19, 0x0154	; 0x800154 <adc_tmp+0x1>
     3b2:	80 91 55 01 	lds	r24, 0x0155	; 0x800155 <adc_sample>
     3b6:	90 91 56 01 	lds	r25, 0x0156	; 0x800156 <adc_sample+0x1>
     3ba:	82 0f       	add	r24, r18
     3bc:	93 1f       	adc	r25, r19
     3be:	90 93 56 01 	sts	0x0156, r25	; 0x800156 <adc_sample+0x1>
     3c2:	80 93 55 01 	sts	0x0155, r24	; 0x800155 <adc_sample>
     3c6:	4d c0       	rjmp	.+154    	; 0x462 <__LOCK_REGION_LENGTH__+0x62>
	}else{
		ADC_VALUE[ADC_SELECTOR] = adc_sample >> ADC_NUMBER_SAMPLE;
     3c8:	e0 91 57 01 	lds	r30, 0x0157	; 0x800157 <ADC_SELECTOR>
     3cc:	f0 91 58 01 	lds	r31, 0x0158	; 0x800158 <ADC_SELECTOR+0x1>
     3d0:	80 91 55 01 	lds	r24, 0x0155	; 0x800155 <adc_sample>
     3d4:	90 91 56 01 	lds	r25, 0x0156	; 0x800156 <adc_sample+0x1>
     3d8:	95 95       	asr	r25
     3da:	87 95       	ror	r24
     3dc:	95 95       	asr	r25
     3de:	87 95       	ror	r24
     3e0:	ee 0f       	add	r30, r30
     3e2:	ff 1f       	adc	r31, r31
     3e4:	e5 59       	subi	r30, 0x95	; 149
     3e6:	fe 4f       	sbci	r31, 0xFE	; 254
     3e8:	91 83       	std	Z+1, r25	; 0x01
     3ea:	80 83       	st	Z, r24
		adc_n_sample=adc_sample = 0;
     3ec:	10 92 56 01 	sts	0x0156, r1	; 0x800156 <adc_sample+0x1>
     3f0:	10 92 55 01 	sts	0x0155, r1	; 0x800155 <adc_sample>
     3f4:	10 92 52 01 	sts	0x0152, r1	; 0x800152 <__data_end>
		/******/
		if(ADC_SELECTOR < ADC_N_CHANNEL)
     3f8:	20 91 57 01 	lds	r18, 0x0157	; 0x800157 <ADC_SELECTOR>
     3fc:	30 91 58 01 	lds	r19, 0x0158	; 0x800158 <ADC_SELECTOR+0x1>
     400:	80 91 59 01 	lds	r24, 0x0159	; 0x800159 <ADC_N_CHANNEL>
     404:	90 91 5a 01 	lds	r25, 0x015A	; 0x80015a <ADC_N_CHANNEL+0x1>
     408:	28 17       	cp	r18, r24
     40a:	39 07       	cpc	r19, r25
     40c:	54 f4       	brge	.+20     	; 0x422 <__LOCK_REGION_LENGTH__+0x22>
			ADC_SELECTOR++;
     40e:	80 91 57 01 	lds	r24, 0x0157	; 0x800157 <ADC_SELECTOR>
     412:	90 91 58 01 	lds	r25, 0x0158	; 0x800158 <ADC_SELECTOR+0x1>
     416:	01 96       	adiw	r24, 0x01	; 1
     418:	90 93 58 01 	sts	0x0158, r25	; 0x800158 <ADC_SELECTOR+0x1>
     41c:	80 93 57 01 	sts	0x0157, r24	; 0x800157 <ADC_SELECTOR>
     420:	04 c0       	rjmp	.+8      	; 0x42a <__LOCK_REGION_LENGTH__+0x2a>
		else
			ADC_SELECTOR = 0;
     422:	10 92 58 01 	sts	0x0158, r1	; 0x800158 <ADC_SELECTOR+0x1>
     426:	10 92 57 01 	sts	0x0157, r1	; 0x800157 <ADC_SELECTOR>
		analogmega328.adc.reg->admux &= ~MUX_MASK;
     42a:	ae e7       	ldi	r26, 0x7E	; 126
     42c:	b1 e0       	ldi	r27, 0x01	; 1
     42e:	14 96       	adiw	r26, 0x04	; 4
     430:	ed 91       	ld	r30, X+
     432:	fc 91       	ld	r31, X
     434:	15 97       	sbiw	r26, 0x05	; 5
     436:	84 81       	ldd	r24, Z+4	; 0x04
     438:	80 7f       	andi	r24, 0xF0	; 240
     43a:	84 83       	std	Z+4, r24	; 0x04
		analogmega328.adc.reg->admux |= (ADC_CHANNEL_GAIN[ADC_SELECTOR] & MUX_MASK);
     43c:	e0 91 57 01 	lds	r30, 0x0157	; 0x800157 <ADC_SELECTOR>
     440:	f0 91 58 01 	lds	r31, 0x0158	; 0x800158 <ADC_SELECTOR+0x1>
     444:	ee 0f       	add	r30, r30
     446:	ff 1f       	adc	r31, r31
     448:	e5 5a       	subi	r30, 0xA5	; 165
     44a:	fe 4f       	sbci	r31, 0xFE	; 254
     44c:	80 81       	ld	r24, Z
     44e:	91 81       	ldd	r25, Z+1	; 0x01
     450:	14 96       	adiw	r26, 0x04	; 4
     452:	ed 91       	ld	r30, X+
     454:	fc 91       	ld	r31, X
     456:	15 97       	sbiw	r26, 0x05	; 5
     458:	8f 70       	andi	r24, 0x0F	; 15
     45a:	99 27       	eor	r25, r25
     45c:	94 81       	ldd	r25, Z+4	; 0x04
     45e:	89 2b       	or	r24, r25
     460:	84 83       	std	Z+4, r24	; 0x04
	}		
}
     462:	ff 91       	pop	r31
     464:	ef 91       	pop	r30
     466:	bf 91       	pop	r27
     468:	af 91       	pop	r26
     46a:	9f 91       	pop	r25
     46c:	8f 91       	pop	r24
     46e:	3f 91       	pop	r19
     470:	2f 91       	pop	r18
     472:	0f 90       	pop	r0
     474:	0f be       	out	0x3f, r0	; 63
     476:	0f 90       	pop	r0
     478:	1f 90       	pop	r1
     47a:	18 95       	reti

0000047c <INTERRUPT_reset_status>:
	return interrupt;
}
uint8_t INTERRUPT_reset_status(void)
{
	uint8_t reset, ret = 0;
	reset = (interruptmega328.cpu.reg->mcusr & MCU_Control_Status_Register_Mask);
     47c:	e0 91 c4 01 	lds	r30, 0x01C4	; 0x8001c4 <interruptmega328+0x8>
     480:	f0 91 c5 01 	lds	r31, 0x01C5	; 0x8001c5 <interruptmega328+0x9>
     484:	86 89       	ldd	r24, Z+22	; 0x16
	switch(reset){
     486:	98 2f       	mov	r25, r24
     488:	9f 70       	andi	r25, 0x0F	; 15
     48a:	92 30       	cpi	r25, 0x02	; 2
     48c:	69 f0       	breq	.+26     	; 0x4a8 <INTERRUPT_reset_status+0x2c>
     48e:	18 f4       	brcc	.+6      	; 0x496 <INTERRUPT_reset_status+0x1a>
     490:	91 30       	cpi	r25, 0x01	; 1
     492:	31 f0       	breq	.+12     	; 0x4a0 <INTERRUPT_reset_status+0x24>
     494:	15 c0       	rjmp	.+42     	; 0x4c0 <INTERRUPT_reset_status+0x44>
     496:	94 30       	cpi	r25, 0x04	; 4
     498:	59 f0       	breq	.+22     	; 0x4b0 <INTERRUPT_reset_status+0x34>
     49a:	98 30       	cpi	r25, 0x08	; 8
     49c:	69 f0       	breq	.+26     	; 0x4b8 <INTERRUPT_reset_status+0x3c>
     49e:	10 c0       	rjmp	.+32     	; 0x4c0 <INTERRUPT_reset_status+0x44>
		case 1: // Power-On Reset Flag
			ret = 0;
			interruptmega328.cpu.reg->mcusr &= ~(1 << PORF);
     4a0:	8e 7f       	andi	r24, 0xFE	; 254
     4a2:	86 8b       	std	Z+22, r24	; 0x16
{
	uint8_t reset, ret = 0;
	reset = (interruptmega328.cpu.reg->mcusr & MCU_Control_Status_Register_Mask);
	switch(reset){
		case 1: // Power-On Reset Flag
			ret = 0;
     4a4:	80 e0       	ldi	r24, 0x00	; 0
			interruptmega328.cpu.reg->mcusr &= ~(1 << PORF);
			break;
     4a6:	08 95       	ret
		case 2: // External Reset Flag
			interruptmega328.cpu.reg->mcusr &= ~(1 << EXTRF);
     4a8:	8d 7f       	andi	r24, 0xFD	; 253
     4aa:	86 8b       	std	Z+22, r24	; 0x16
			ret = 1;
     4ac:	81 e0       	ldi	r24, 0x01	; 1
			break;
     4ae:	08 95       	ret
		case 4: // Brown-out Reset Flag
			interruptmega328.cpu.reg->mcusr &= ~(1 << BORF);
     4b0:	8b 7f       	andi	r24, 0xFB	; 251
     4b2:	86 8b       	std	Z+22, r24	; 0x16
			ret = 2;
     4b4:	82 e0       	ldi	r24, 0x02	; 2
			break;
     4b6:	08 95       	ret
		case 8: // Watchdog Reset Flag
			interruptmega328.cpu.reg->mcusr &= ~(1 << WDRF);
     4b8:	87 7f       	andi	r24, 0xF7	; 247
     4ba:	86 8b       	std	Z+22, r24	; 0x16
			ret = 3;
     4bc:	83 e0       	ldi	r24, 0x03	; 3
			break;
     4be:	08 95       	ret
		default: // clear all status
			interruptmega328.cpu.reg->mcusr &= ~(MCU_Control_Status_Register_Mask);
     4c0:	80 7f       	andi	r24, 0xF0	; 240
     4c2:	86 8b       	std	Z+22, r24	; 0x16
	
	return interrupt;
}
uint8_t INTERRUPT_reset_status(void)
{
	uint8_t reset, ret = 0;
     4c4:	80 e0       	ldi	r24, 0x00	; 0
		default: // clear all status
			interruptmega328.cpu.reg->mcusr &= ~(MCU_Control_Status_Register_Mask);
			break;
	}
	return ret;
}
     4c6:	08 95       	ret

000004c8 <INTERRUPT_set>:
void INTERRUPT_set(uint8_t channel, uint8_t sense)
{
	switch( channel ){
     4c8:	88 23       	and	r24, r24
     4ca:	19 f0       	breq	.+6      	; 0x4d2 <INTERRUPT_set+0xa>
     4cc:	81 30       	cpi	r24, 0x01	; 1
     4ce:	f9 f0       	breq	.+62     	; 0x50e <INTERRUPT_set+0x46>
     4d0:	3c c0       	rjmp	.+120    	; 0x54a <INTERRUPT_set+0x82>
		case 0: 
			interruptmega328.exint.reg->eimsk &= ~(1 << INT0);
     4d2:	ec eb       	ldi	r30, 0xBC	; 188
     4d4:	f1 e0       	ldi	r31, 0x01	; 1
     4d6:	a6 85       	ldd	r26, Z+14	; 0x0e
     4d8:	b7 85       	ldd	r27, Z+15	; 0x0f
     4da:	12 96       	adiw	r26, 0x02	; 2
     4dc:	8c 91       	ld	r24, X
     4de:	12 97       	sbiw	r26, 0x02	; 2
     4e0:	8e 7f       	andi	r24, 0xFE	; 254
     4e2:	12 96       	adiw	r26, 0x02	; 2
     4e4:	8c 93       	st	X, r24
			interruptmega328.exint.reg->eicra &= ~((1 << ISC01) | (1 << ISC00));
     4e6:	06 84       	ldd	r0, Z+14	; 0x0e
     4e8:	f7 85       	ldd	r31, Z+15	; 0x0f
     4ea:	e0 2d       	mov	r30, r0
     4ec:	86 a5       	ldd	r24, Z+46	; 0x2e
     4ee:	8c 7f       	andi	r24, 0xFC	; 252
			switch(sense){
     4f0:	62 30       	cpi	r22, 0x02	; 2
     4f2:	21 f0       	breq	.+8      	; 0x4fc <INTERRUPT_set+0x34>
     4f4:	63 30       	cpi	r22, 0x03	; 3
     4f6:	29 f0       	breq	.+10     	; 0x502 <INTERRUPT_set+0x3a>
void INTERRUPT_set(uint8_t channel, uint8_t sense)
{
	switch( channel ){
		case 0: 
			interruptmega328.exint.reg->eimsk &= ~(1 << INT0);
			interruptmega328.exint.reg->eicra &= ~((1 << ISC01) | (1 << ISC00));
     4f8:	86 a7       	std	Z+46, r24	; 0x2e
     4fa:	05 c0       	rjmp	.+10     	; 0x506 <INTERRUPT_set+0x3e>
			switch(sense){
				case 0: // The low level of INT0 generates an interrupt request.
				case 1: // Any logical change on INT0 generates an interrupt request.
					break;
				case 2: // The falling edge of INT0 generates an interrupt request.
					interruptmega328.exint.reg->eicra |= (1 << ISC01);
     4fc:	82 60       	ori	r24, 0x02	; 2
     4fe:	86 a7       	std	Z+46, r24	; 0x2e
					break;
     500:	02 c0       	rjmp	.+4      	; 0x506 <INTERRUPT_set+0x3e>
				case 3: // The rising edge of INT0 generates an interrupt request.
					interruptmega328.exint.reg->eicra |= ((1 << ISC01) | (1 << ISC00));
     502:	83 60       	ori	r24, 0x03	; 3
     504:	86 a7       	std	Z+46, r24	; 0x2e
					break;
				default: // The low level of INT0 generates an interrupt request.
					break;
			}
			interruptmega328.exint.reg->eimsk |= (1 << INT0);
     506:	82 81       	ldd	r24, Z+2	; 0x02
     508:	81 60       	ori	r24, 0x01	; 1
     50a:	82 83       	std	Z+2, r24	; 0x02
			break;
     50c:	08 95       	ret
		case 1:
			interruptmega328.exint.reg->eimsk &= ~(1 << INT1);
     50e:	ec eb       	ldi	r30, 0xBC	; 188
     510:	f1 e0       	ldi	r31, 0x01	; 1
     512:	a6 85       	ldd	r26, Z+14	; 0x0e
     514:	b7 85       	ldd	r27, Z+15	; 0x0f
     516:	12 96       	adiw	r26, 0x02	; 2
     518:	8c 91       	ld	r24, X
     51a:	12 97       	sbiw	r26, 0x02	; 2
     51c:	8d 7f       	andi	r24, 0xFD	; 253
     51e:	12 96       	adiw	r26, 0x02	; 2
     520:	8c 93       	st	X, r24
			interruptmega328.exint.reg->eicra &= ~((1 << ISC11) | (1 << ISC10));
     522:	06 84       	ldd	r0, Z+14	; 0x0e
     524:	f7 85       	ldd	r31, Z+15	; 0x0f
     526:	e0 2d       	mov	r30, r0
     528:	86 a5       	ldd	r24, Z+46	; 0x2e
     52a:	83 7f       	andi	r24, 0xF3	; 243
			switch(sense){
     52c:	62 30       	cpi	r22, 0x02	; 2
     52e:	21 f0       	breq	.+8      	; 0x538 <INTERRUPT_set+0x70>
     530:	63 30       	cpi	r22, 0x03	; 3
     532:	29 f0       	breq	.+10     	; 0x53e <INTERRUPT_set+0x76>
			}
			interruptmega328.exint.reg->eimsk |= (1 << INT0);
			break;
		case 1:
			interruptmega328.exint.reg->eimsk &= ~(1 << INT1);
			interruptmega328.exint.reg->eicra &= ~((1 << ISC11) | (1 << ISC10));
     534:	86 a7       	std	Z+46, r24	; 0x2e
     536:	05 c0       	rjmp	.+10     	; 0x542 <INTERRUPT_set+0x7a>
			switch(sense){
				case 0: // The low level of INT1 generates an interrupt request.
				case 1: // Any logical change on INT1 generates an interrupt request.
					break;
				case 2: // The falling edge of INT1 generates an interrupt request.
					interruptmega328.exint.reg->eicra |= (1 << ISC11);
     538:	88 60       	ori	r24, 0x08	; 8
     53a:	86 a7       	std	Z+46, r24	; 0x2e
					break;
     53c:	02 c0       	rjmp	.+4      	; 0x542 <INTERRUPT_set+0x7a>
				case 3: // The rising edge of INT1 generates an interrupt request.
					interruptmega328.exint.reg->eicra |= ((1 << ISC11) | (1 << ISC10));
     53e:	8c 60       	ori	r24, 0x0C	; 12
     540:	86 a7       	std	Z+46, r24	; 0x2e
					break;
				default: // The low level of INT1 generates an interrupt request.
					break;
			}
			interruptmega328.exint.reg->eimsk |= (1 << INT1);
     542:	82 81       	ldd	r24, Z+2	; 0x02
     544:	82 60       	ori	r24, 0x02	; 2
     546:	82 83       	std	Z+2, r24	; 0x02
			break;
     548:	08 95       	ret
		default:
			interruptmega328.exint.reg->eimsk = 0X00;
     54a:	e0 91 ca 01 	lds	r30, 0x01CA	; 0x8001ca <interruptmega328+0xe>
     54e:	f0 91 cb 01 	lds	r31, 0x01CB	; 0x8001cb <interruptmega328+0xf>
     552:	12 82       	std	Z+2, r1	; 0x02
     554:	08 95       	ret

00000556 <INTERRUPT_off>:
			break;
	}
}
void INTERRUPT_off(uint8_t channel)
{
	switch( channel ){
     556:	88 23       	and	r24, r24
     558:	19 f0       	breq	.+6      	; 0x560 <INTERRUPT_off+0xa>
     55a:	81 30       	cpi	r24, 0x01	; 1
     55c:	49 f0       	breq	.+18     	; 0x570 <INTERRUPT_off+0x1a>
     55e:	10 c0       	rjmp	.+32     	; 0x580 <INTERRUPT_off+0x2a>
		case 0: // desable
			interruptmega328.exint.reg->eimsk &= ~(1 << INT0);
     560:	e0 91 ca 01 	lds	r30, 0x01CA	; 0x8001ca <interruptmega328+0xe>
     564:	f0 91 cb 01 	lds	r31, 0x01CB	; 0x8001cb <interruptmega328+0xf>
     568:	82 81       	ldd	r24, Z+2	; 0x02
     56a:	8e 7f       	andi	r24, 0xFE	; 254
     56c:	82 83       	std	Z+2, r24	; 0x02
			break;
     56e:	08 95       	ret
		case 1: // desable
			interruptmega328.exint.reg->eimsk &= ~(1 << INT1);
     570:	e0 91 ca 01 	lds	r30, 0x01CA	; 0x8001ca <interruptmega328+0xe>
     574:	f0 91 cb 01 	lds	r31, 0x01CB	; 0x8001cb <interruptmega328+0xf>
     578:	82 81       	ldd	r24, Z+2	; 0x02
     57a:	8d 7f       	andi	r24, 0xFD	; 253
     57c:	82 83       	std	Z+2, r24	; 0x02
			break;
     57e:	08 95       	ret
		default: // all disable
			interruptmega328.exint.reg->eimsk = 0X00;
     580:	e0 91 ca 01 	lds	r30, 0x01CA	; 0x8001ca <interruptmega328+0xe>
     584:	f0 91 cb 01 	lds	r31, 0x01CB	; 0x8001cb <interruptmega328+0xf>
     588:	12 82       	std	Z+2, r1	; 0x02
     58a:	08 95       	ret

0000058c <INTERRUPTenable>:
uint8_t INTERRUPT_reset_status(void);

/*** Procedure and Function ***/
INTERRUPT INTERRUPTenable(void)
// setup blank
{
     58c:	cf 93       	push	r28
     58e:	df 93       	push	r29
     590:	cd b7       	in	r28, 0x3d	; 61
     592:	de b7       	in	r29, 0x3e	; 62
     594:	c4 54       	subi	r28, 0x44	; 68
     596:	d1 09       	sbc	r29, r1
     598:	0f b6       	in	r0, 0x3f	; 63
     59a:	f8 94       	cli
     59c:	de bf       	out	0x3e, r29	; 62
     59e:	0f be       	out	0x3f, r0	; 63
     5a0:	cd bf       	out	0x3d, r28	; 61
	interruptmega328 = ATMEGA328enable();
     5a2:	ce 01       	movw	r24, r28
     5a4:	07 96       	adiw	r24, 0x07	; 7
     5a6:	0e 94 17 03 	call	0x62e	; 0x62e <ATMEGA328enable>
     5aa:	8e e3       	ldi	r24, 0x3E	; 62
     5ac:	fe 01       	movw	r30, r28
     5ae:	37 96       	adiw	r30, 0x07	; 7
     5b0:	ac eb       	ldi	r26, 0xBC	; 188
     5b2:	b1 e0       	ldi	r27, 0x01	; 1
     5b4:	01 90       	ld	r0, Z+
     5b6:	0d 92       	st	X+, r0
     5b8:	8a 95       	dec	r24
     5ba:	e1 f7       	brne	.-8      	; 0x5b4 <INTERRUPTenable+0x28>
	struct intrpt interrupt;
	// Pre-Processor Case 1
	interruptmega328.exint.reg->eimsk = 0X00;
     5bc:	e0 91 ca 01 	lds	r30, 0x01CA	; 0x8001ca <interruptmega328+0xe>
     5c0:	f0 91 cb 01 	lds	r31, 0x01CB	; 0x8001cb <interruptmega328+0xf>
     5c4:	12 82       	std	Z+2, r1	; 0x02
	
	interrupt.set = INTERRUPT_set;
	interrupt.off = INTERRUPT_off;
	interrupt.reset_status = INTERRUPT_reset_status;
	
	return interrupt;
     5c6:	24 e6       	ldi	r18, 0x64	; 100
     5c8:	32 e0       	ldi	r19, 0x02	; 2
     5ca:	3a 83       	std	Y+2, r19	; 0x02
     5cc:	29 83       	std	Y+1, r18	; 0x01
     5ce:	4b ea       	ldi	r20, 0xAB	; 171
     5d0:	52 e0       	ldi	r21, 0x02	; 2
     5d2:	5c 83       	std	Y+4, r21	; 0x04
     5d4:	4b 83       	std	Y+3, r20	; 0x03
     5d6:	6e e3       	ldi	r22, 0x3E	; 62
     5d8:	72 e0       	ldi	r23, 0x02	; 2
     5da:	7e 83       	std	Y+6, r23	; 0x06
     5dc:	6d 83       	std	Y+5, r22	; 0x05
     5de:	3a 81       	ldd	r19, Y+2	; 0x02
     5e0:	5c 81       	ldd	r21, Y+4	; 0x04
     5e2:	7e 81       	ldd	r23, Y+6	; 0x06
}
     5e4:	80 e0       	ldi	r24, 0x00	; 0
     5e6:	90 e0       	ldi	r25, 0x00	; 0
     5e8:	cc 5b       	subi	r28, 0xBC	; 188
     5ea:	df 4f       	sbci	r29, 0xFF	; 255
     5ec:	0f b6       	in	r0, 0x3f	; 63
     5ee:	f8 94       	cli
     5f0:	de bf       	out	0x3e, r29	; 62
     5f2:	0f be       	out	0x3f, r0	; 63
     5f4:	cd bf       	out	0x3d, r28	; 61
     5f6:	df 91       	pop	r29
     5f8:	cf 91       	pop	r28
     5fa:	08 95       	ret

000005fc <ReadHLByte>:
}

// COMMON
uint16_t ReadHLByte(HighLowByte reg)
{
	return (reg.H << 8) | reg.L;
     5fc:	29 2f       	mov	r18, r25
     5fe:	30 e0       	ldi	r19, 0x00	; 0
     600:	32 2f       	mov	r19, r18
     602:	22 27       	eor	r18, r18
}
     604:	a9 01       	movw	r20, r18
     606:	48 2b       	or	r20, r24
     608:	ca 01       	movw	r24, r20
     60a:	08 95       	ret

0000060c <ReadLHByte>:

uint16_t ReadLHByte(HighLowByte reg)
{
	return (reg.L << 8) | reg.H;
     60c:	28 2f       	mov	r18, r24
     60e:	30 e0       	ldi	r19, 0x00	; 0
     610:	32 2f       	mov	r19, r18
     612:	22 27       	eor	r18, r18
}
     614:	a9 01       	movw	r20, r18
     616:	49 2b       	or	r20, r25
     618:	ca 01       	movw	r24, r20
     61a:	08 95       	ret

0000061c <WriteHLByte>:

HighLowByte WriteHLByte(uint16_t val)
{
	HighLowByte reg; reg.H = (val >> 8); reg.L = val;
	return reg;
}
     61c:	08 95       	ret

0000061e <WriteLHByte>:

HighLowByte WriteLHByte(uint16_t val)
{
     61e:	28 2f       	mov	r18, r24
	HighLowByte reg; reg.L = (val >> 8); reg.H = val;
	return reg;
}
     620:	89 2f       	mov	r24, r25
     622:	92 2f       	mov	r25, r18
     624:	08 95       	ret

00000626 <SwapByte>:
uint16_t SwapByte(uint16_t num)
{
	uint16_t tp;
	tp = (num << 8);
	return (num >> 8) | tp;
}
     626:	98 27       	eor	r25, r24
     628:	89 27       	eor	r24, r25
     62a:	98 27       	eor	r25, r24
     62c:	08 95       	ret

0000062e <ATMEGA328enable>:

/*** File Procedure & Function ***/
ATMEGA328 ATMEGA328enable(void){
	// Assign
	// GPWR
	ret.gpwr.reg = (Atmega328GPWR_TypeDef*) GPWRaddr;
     62e:	ea ef       	ldi	r30, 0xFA	; 250
     630:	f1 e0       	ldi	r31, 0x01	; 1
     632:	11 82       	std	Z+1, r1	; 0x01
     634:	10 82       	st	Z, r1
	// AC
	ret.ac.reg = (Atmega328AnalogComparator_TypeDef*) AnalogComparator;
     636:	20 e5       	ldi	r18, 0x50	; 80
     638:	30 e0       	ldi	r19, 0x00	; 0
     63a:	33 83       	std	Z+3, r19	; 0x03
     63c:	22 83       	std	Z+2, r18	; 0x02
	// ADC
	ret.adc.reg = (Atmega328AnalogToDigitalConverter_TypeDef*) AnalogToDigitalConverter;
     63e:	28 e7       	ldi	r18, 0x78	; 120
     640:	30 e0       	ldi	r19, 0x00	; 0
     642:	35 83       	std	Z+5, r19	; 0x05
     644:	24 83       	std	Z+4, r18	; 0x04
	#if defined(_ATMEGA328ANALOG_H_)
		ret.adc.enable = ANALOGenable;
     646:	25 e8       	ldi	r18, 0x85	; 133
     648:	30 e0       	ldi	r19, 0x00	; 0
     64a:	37 83       	std	Z+7, r19	; 0x07
     64c:	26 83       	std	Z+6, r18	; 0x06
	#endif
	ret.cpu.reg = (Atmega328CPURegister_TypeDef*) CPURegister;
     64e:	2e e3       	ldi	r18, 0x3E	; 62
     650:	30 e0       	ldi	r19, 0x00	; 0
     652:	31 87       	std	Z+9, r19	; 0x09
     654:	20 87       	std	Z+8, r18	; 0x08
	// EEPROM
	ret.eeprom.reg = (Atmega328Eeprom_TypeDef*) Eeprom;
     656:	2f e3       	ldi	r18, 0x3F	; 63
     658:	30 e0       	ldi	r19, 0x00	; 0
     65a:	33 87       	std	Z+11, r19	; 0x0b
     65c:	22 87       	std	Z+10, r18	; 0x0a
	#if defined(_EEPROM_H_)
		ret.eeprom.enable = EEPROMenable;
	#endif
	// EXINT
	ret.exint.reg = (Atmega328ExternalInterrupts_TypeDef*) ExternalInterrupts;
     65e:	2b e3       	ldi	r18, 0x3B	; 59
     660:	30 e0       	ldi	r19, 0x00	; 0
     662:	37 87       	std	Z+15, r19	; 0x0f
     664:	26 87       	std	Z+14, r18	; 0x0e
	#if defined(_ATMEGA328INTERRUPT_H_)
		ret.exint.enable = INTERRUPTenable;
     666:	26 ec       	ldi	r18, 0xC6	; 198
     668:	32 e0       	ldi	r19, 0x02	; 2
     66a:	31 8b       	std	Z+17, r19	; 0x11
     66c:	20 8b       	std	Z+16, r18	; 0x10
	#endif
	ret.portb.reg = (Atmega328PORTB_TypeDef*) PORTBaddr;
     66e:	23 e2       	ldi	r18, 0x23	; 35
     670:	30 e0       	ldi	r19, 0x00	; 0
     672:	33 8b       	std	Z+19, r19	; 0x13
     674:	22 8b       	std	Z+18, r18	; 0x12
	ret.portc.reg = (Atmega328PORTC_TypeDef*) PORTCaddr;
     676:	26 e2       	ldi	r18, 0x26	; 38
     678:	30 e0       	ldi	r19, 0x00	; 0
     67a:	35 8b       	std	Z+21, r19	; 0x15
     67c:	24 8b       	std	Z+20, r18	; 0x14
	ret.portd.reg = (Atmega328PORTD_TypeDef*) PORTDaddr;
     67e:	29 e2       	ldi	r18, 0x29	; 41
     680:	30 e0       	ldi	r19, 0x00	; 0
     682:	37 8b       	std	Z+23, r19	; 0x17
     684:	26 8b       	std	Z+22, r18	; 0x16
	// SPI
	ret.spi.reg = (Atmega328SerialPeripherialInterface_TypeDef*) SerialPeripherialInterface;
     686:	2c e4       	ldi	r18, 0x4C	; 76
     688:	30 e0       	ldi	r19, 0x00	; 0
     68a:	31 8f       	std	Z+25, r19	; 0x19
     68c:	20 8f       	std	Z+24, r18	; 0x18
	#if defined(_ATMEGA328SPI_H_)
		ret.spi.enable = SPIenable;
	#endif
	// TC1
	ret.tc1.reg = (Atmega328TimerCounter1_TypeDef*) TimerCounter1;
     68e:	26 e3       	ldi	r18, 0x36	; 54
     690:	30 e0       	ldi	r19, 0x00	; 0
     692:	33 8f       	std	Z+27, r19	; 0x1b
     694:	22 8f       	std	Z+26, r18	; 0x1a
	#if defined(_ATMEGA328TIMER_H_)
		ret.tc1.enable = TIMER_COUNTER1enable;
     696:	26 e1       	ldi	r18, 0x16	; 22
     698:	37 e0       	ldi	r19, 0x07	; 7
     69a:	35 8f       	std	Z+29, r19	; 0x1d
     69c:	24 8f       	std	Z+28, r18	; 0x1c
	#endif
	// TC0
	ret.tc0.reg = (Atmega328TimerCounter0_TypeDef*) TimerCounter0;
     69e:	25 e3       	ldi	r18, 0x35	; 53
     6a0:	30 e0       	ldi	r19, 0x00	; 0
     6a2:	37 8f       	std	Z+31, r19	; 0x1f
     6a4:	26 8f       	std	Z+30, r18	; 0x1e
	#if defined(_ATMEGA328TIMER_H_)
		ret.tc0.enable = TIMER_COUNTER0enable;
     6a6:	22 e4       	ldi	r18, 0x42	; 66
     6a8:	36 e0       	ldi	r19, 0x06	; 6
     6aa:	31 a3       	std	Z+33, r19	; 0x21
     6ac:	20 a3       	std	Z+32, r18	; 0x20
	#endif
	// TC2
	ret.tc2.reg = (Atmega328TimerCounter2_TypeDef*) TimerCounter2;
     6ae:	27 e3       	ldi	r18, 0x37	; 55
     6b0:	30 e0       	ldi	r19, 0x00	; 0
     6b2:	33 a3       	std	Z+35, r19	; 0x23
     6b4:	22 a3       	std	Z+34, r18	; 0x22
	#if defined(_ATMEGA328TIMER_H_)
		ret.tc2.enable = TIMER_COUNTER2enable;
     6b6:	2d e2       	ldi	r18, 0x2D	; 45
     6b8:	38 e0       	ldi	r19, 0x08	; 8
     6ba:	35 a3       	std	Z+37, r19	; 0x25
     6bc:	24 a3       	std	Z+36, r18	; 0x24
	#endif
	// TWI
	ret.twi.reg = (Atmega328TwoWireSerialInterface_TypeDef*) TwoWireSerialInterface;
     6be:	28 eb       	ldi	r18, 0xB8	; 184
     6c0:	30 e0       	ldi	r19, 0x00	; 0
     6c2:	37 a3       	std	Z+39, r19	; 0x27
     6c4:	26 a3       	std	Z+38, r18	; 0x26
	#if defined(_ATMEGA328TWI_H_)
		ret.twi.enable = TWIenable;
     6c6:	28 e5       	ldi	r18, 0x58	; 88
     6c8:	39 e0       	ldi	r19, 0x09	; 9
     6ca:	31 a7       	std	Z+41, r19	; 0x29
     6cc:	20 a7       	std	Z+40, r18	; 0x28
	#endif
	// USART
	ret.usart.reg = (Atmega328Usart_TypeDef*) Usart;
     6ce:	20 ec       	ldi	r18, 0xC0	; 192
     6d0:	30 e0       	ldi	r19, 0x00	; 0
     6d2:	33 a7       	std	Z+43, r19	; 0x2b
     6d4:	22 a7       	std	Z+42, r18	; 0x2a
	#if defined(_ATMEGA328UART_H_)
		ret.usart.enable = UARTenable;
     6d6:	2f e6       	ldi	r18, 0x6F	; 111
     6d8:	3a e0       	ldi	r19, 0x0A	; 10
     6da:	35 a7       	std	Z+45, r19	; 0x2d
     6dc:	24 a7       	std	Z+44, r18	; 0x2c
	#endif
	// WDT
	ret.wdt.reg = (Atmega328WatchdogTimer_TypeDef*) WatchdogTimer;
     6de:	20 e6       	ldi	r18, 0x60	; 96
     6e0:	30 e0       	ldi	r19, 0x00	; 0
     6e2:	37 a7       	std	Z+47, r19	; 0x2f
     6e4:	26 a7       	std	Z+46, r18	; 0x2e
	// Static RAM
	// ISR
	ret.isr.reg = (Atmega328InterruptVectors_TypeDef*) InterruptVectors;
     6e6:	20 e0       	ldi	r18, 0x00	; 0
     6e8:	31 e0       	ldi	r19, 0x01	; 1
     6ea:	31 ab       	std	Z+49, r19	; 0x31
     6ec:	20 ab       	std	Z+48, r18	; 0x30
	// func
	ret.readhlbyte = ReadHLByte;
     6ee:	2e ef       	ldi	r18, 0xFE	; 254
     6f0:	32 e0       	ldi	r19, 0x02	; 2
     6f2:	35 ab       	std	Z+53, r19	; 0x35
     6f4:	24 ab       	std	Z+52, r18	; 0x34
	ret.readlhbyte = ReadLHByte;
     6f6:	26 e0       	ldi	r18, 0x06	; 6
     6f8:	33 e0       	ldi	r19, 0x03	; 3
     6fa:	37 ab       	std	Z+55, r19	; 0x37
     6fc:	26 ab       	std	Z+54, r18	; 0x36
	ret.writehlbyte = WriteHLByte;
     6fe:	2e e0       	ldi	r18, 0x0E	; 14
     700:	33 e0       	ldi	r19, 0x03	; 3
     702:	31 af       	std	Z+57, r19	; 0x39
     704:	20 af       	std	Z+56, r18	; 0x38
	ret.writelhbyte = WriteLHByte;
     706:	2f e0       	ldi	r18, 0x0F	; 15
     708:	33 e0       	ldi	r19, 0x03	; 3
     70a:	33 af       	std	Z+59, r19	; 0x3b
     70c:	22 af       	std	Z+58, r18	; 0x3a
	ret.swapbyte = SwapByte;
     70e:	23 e1       	ldi	r18, 0x13	; 19
     710:	33 e0       	ldi	r19, 0x03	; 3
     712:	35 af       	std	Z+61, r19	; 0x3d
     714:	24 af       	std	Z+60, r18	; 0x3c
	return ret;
     716:	2e e3       	ldi	r18, 0x3E	; 62
     718:	dc 01       	movw	r26, r24
     71a:	01 90       	ld	r0, Z+
     71c:	0d 92       	st	X+, r0
     71e:	2a 95       	dec	r18
     720:	e1 f7       	brne	.-8      	; 0x71a <ATMEGA328enable+0xec>
}
     722:	08 95       	ret

00000724 <TIMER_COUNTER0_start>:
//	Frequency oscillator devision factor or prescaler.
//	prescaler: clk T0S /(No prescaling); clk T0S /8 (From prescaler); clk T0S /32 (From prescaler);
//	clk T0S /64 (From prescaler); clk T0S /128 (From prescaler); clk T 0 S /256 (From prescaler);
//	clk T 0 S /1024 (From prescaler); default - clk T 0 S /1024 (From prescaler).
{
	if(timer0_state == 0){ // one shot
     724:	20 91 7d 01 	lds	r18, 0x017D	; 0x80017d <timer0_state>
     728:	21 11       	cpse	r18, r1
     72a:	71 c0       	rjmp	.+226    	; 0x80e <TIMER_COUNTER0_start+0xea>
		timermega328.tc0.reg->ocr0a = 0XFF;
     72c:	e8 e3       	ldi	r30, 0x38	; 56
     72e:	f2 e0       	ldi	r31, 0x02	; 2
     730:	a6 8d       	ldd	r26, Z+30	; 0x1e
     732:	b7 8d       	ldd	r27, Z+31	; 0x1f
     734:	2f ef       	ldi	r18, 0xFF	; 255
     736:	52 96       	adiw	r26, 0x12	; 18
     738:	2c 93       	st	X, r18
		timermega328.tc0.reg->tccr0b &= ~(7 << CS00); // No clock source. (Timer/Counter stopped)
     73a:	06 8c       	ldd	r0, Z+30	; 0x1e
     73c:	f7 8d       	ldd	r31, Z+31	; 0x1f
     73e:	e0 2d       	mov	r30, r0
     740:	20 89       	ldd	r18, Z+16	; 0x10
     742:	28 7f       	andi	r18, 0xF8	; 248
     744:	20 8b       	std	Z+16, r18	; 0x10
		switch(prescaler){
     746:	88 30       	cpi	r24, 0x08	; 8
     748:	91 05       	cpc	r25, r1
     74a:	01 f1       	breq	.+64     	; 0x78c <TIMER_COUNTER0_start+0x68>
     74c:	58 f4       	brcc	.+22     	; 0x764 <TIMER_COUNTER0_start+0x40>
     74e:	83 30       	cpi	r24, 0x03	; 3
     750:	91 05       	cpc	r25, r1
     752:	e1 f1       	breq	.+120    	; 0x7cc <TIMER_COUNTER0_start+0xa8>
     754:	85 30       	cpi	r24, 0x05	; 5
     756:	91 05       	cpc	r25, r1
     758:	09 f4       	brne	.+2      	; 0x75c <TIMER_COUNTER0_start+0x38>
     75a:	40 c0       	rjmp	.+128    	; 0x7dc <TIMER_COUNTER0_start+0xb8>
     75c:	01 97       	sbiw	r24, 0x01	; 1
     75e:	09 f0       	breq	.+2      	; 0x762 <TIMER_COUNTER0_start+0x3e>
     760:	45 c0       	rjmp	.+138    	; 0x7ec <TIMER_COUNTER0_start+0xc8>
     762:	0c c0       	rjmp	.+24     	; 0x77c <TIMER_COUNTER0_start+0x58>
     764:	81 15       	cp	r24, r1
     766:	21 e0       	ldi	r18, 0x01	; 1
     768:	92 07       	cpc	r25, r18
     76a:	01 f1       	breq	.+64     	; 0x7ac <TIMER_COUNTER0_start+0x88>
     76c:	81 15       	cp	r24, r1
     76e:	24 e0       	ldi	r18, 0x04	; 4
     770:	92 07       	cpc	r25, r18
     772:	21 f1       	breq	.+72     	; 0x7bc <TIMER_COUNTER0_start+0x98>
     774:	80 34       	cpi	r24, 0x40	; 64
     776:	91 05       	cpc	r25, r1
     778:	c9 f5       	brne	.+114    	; 0x7ec <TIMER_COUNTER0_start+0xc8>
     77a:	10 c0       	rjmp	.+32     	; 0x79c <TIMER_COUNTER0_start+0x78>
			case 1: // clk T0S /(No prescaler)
				timermega328.tc0.reg->tccr0b |= (1 << CS00);
     77c:	e0 91 56 02 	lds	r30, 0x0256	; 0x800256 <timermega328+0x1e>
     780:	f0 91 57 02 	lds	r31, 0x0257	; 0x800257 <timermega328+0x1f>
     784:	80 89       	ldd	r24, Z+16	; 0x10
     786:	81 60       	ori	r24, 0x01	; 1
     788:	80 8b       	std	Z+16, r24	; 0x10
			break;
     78a:	37 c0       	rjmp	.+110    	; 0x7fa <TIMER_COUNTER0_start+0xd6>
			case 8: // clk T0S /8 (From prescaler)
				timermega328.tc0.reg->tccr0b |= (1 << CS01);
     78c:	e0 91 56 02 	lds	r30, 0x0256	; 0x800256 <timermega328+0x1e>
     790:	f0 91 57 02 	lds	r31, 0x0257	; 0x800257 <timermega328+0x1f>
     794:	80 89       	ldd	r24, Z+16	; 0x10
     796:	82 60       	ori	r24, 0x02	; 2
     798:	80 8b       	std	Z+16, r24	; 0x10
			break;
     79a:	2f c0       	rjmp	.+94     	; 0x7fa <TIMER_COUNTER0_start+0xd6>
			case 64: // clk T0S /64 (From prescaler)
				timermega328.tc0.reg->tccr0b |= (3 << CS00);
     79c:	e0 91 56 02 	lds	r30, 0x0256	; 0x800256 <timermega328+0x1e>
     7a0:	f0 91 57 02 	lds	r31, 0x0257	; 0x800257 <timermega328+0x1f>
     7a4:	80 89       	ldd	r24, Z+16	; 0x10
     7a6:	83 60       	ori	r24, 0x03	; 3
     7a8:	80 8b       	std	Z+16, r24	; 0x10
			break;
     7aa:	27 c0       	rjmp	.+78     	; 0x7fa <TIMER_COUNTER0_start+0xd6>
			case 256: // clk T 0 S /256 (From prescaler)
				timermega328.tc0.reg->tccr0b |= (4 << CS00);
     7ac:	e0 91 56 02 	lds	r30, 0x0256	; 0x800256 <timermega328+0x1e>
     7b0:	f0 91 57 02 	lds	r31, 0x0257	; 0x800257 <timermega328+0x1f>
     7b4:	80 89       	ldd	r24, Z+16	; 0x10
     7b6:	84 60       	ori	r24, 0x04	; 4
     7b8:	80 8b       	std	Z+16, r24	; 0x10
			break;
     7ba:	1f c0       	rjmp	.+62     	; 0x7fa <TIMER_COUNTER0_start+0xd6>
			case 1024: // clk T 0 S /1024 (From prescaler)
				timermega328.tc0.reg->tccr0b |= (5 << CS00);
     7bc:	e0 91 56 02 	lds	r30, 0x0256	; 0x800256 <timermega328+0x1e>
     7c0:	f0 91 57 02 	lds	r31, 0x0257	; 0x800257 <timermega328+0x1f>
     7c4:	80 89       	ldd	r24, Z+16	; 0x10
     7c6:	85 60       	ori	r24, 0x05	; 5
     7c8:	80 8b       	std	Z+16, r24	; 0x10
			break;
     7ca:	17 c0       	rjmp	.+46     	; 0x7fa <TIMER_COUNTER0_start+0xd6>
			case 3: // External clock source on T0 pin. Clock on falling edge.
				timermega328.tc0.reg->tccr0b |= (6 << CS00);
     7cc:	e0 91 56 02 	lds	r30, 0x0256	; 0x800256 <timermega328+0x1e>
     7d0:	f0 91 57 02 	lds	r31, 0x0257	; 0x800257 <timermega328+0x1f>
     7d4:	80 89       	ldd	r24, Z+16	; 0x10
     7d6:	86 60       	ori	r24, 0x06	; 6
     7d8:	80 8b       	std	Z+16, r24	; 0x10
			break;
     7da:	0f c0       	rjmp	.+30     	; 0x7fa <TIMER_COUNTER0_start+0xd6>
			case 5: // External clock source on T0 pin. Clock on rising edge.
				timermega328.tc0.reg->tccr0b |= (7 << CS00);
     7dc:	e0 91 56 02 	lds	r30, 0x0256	; 0x800256 <timermega328+0x1e>
     7e0:	f0 91 57 02 	lds	r31, 0x0257	; 0x800257 <timermega328+0x1f>
     7e4:	80 89       	ldd	r24, Z+16	; 0x10
     7e6:	87 60       	ori	r24, 0x07	; 7
     7e8:	80 8b       	std	Z+16, r24	; 0x10
			break;
     7ea:	07 c0       	rjmp	.+14     	; 0x7fa <TIMER_COUNTER0_start+0xd6>
			default:
				timermega328.tc0.reg->tccr0b |= (5 << CS00);
     7ec:	e0 91 56 02 	lds	r30, 0x0256	; 0x800256 <timermega328+0x1e>
     7f0:	f0 91 57 02 	lds	r31, 0x0257	; 0x800257 <timermega328+0x1f>
     7f4:	80 89       	ldd	r24, Z+16	; 0x10
     7f6:	85 60       	ori	r24, 0x05	; 5
     7f8:	80 8b       	std	Z+16, r24	; 0x10
			break;
		}
		timermega328.cpu.reg->sreg |= (1 << GLOBAL_INTERRUPT_ENABLE);
     7fa:	e0 91 40 02 	lds	r30, 0x0240	; 0x800240 <timermega328+0x8>
     7fe:	f0 91 41 02 	lds	r31, 0x0241	; 0x800241 <timermega328+0x9>
     802:	81 a1       	ldd	r24, Z+33	; 0x21
     804:	80 68       	ori	r24, 0x80	; 128
     806:	81 a3       	std	Z+33, r24	; 0x21
		timer0_state = 1;
     808:	81 e0       	ldi	r24, 0x01	; 1
     80a:	80 93 7d 01 	sts	0x017D, r24	; 0x80017d <timer0_state>
     80e:	08 95       	ret

00000810 <TIMER_COUNTER0_compoutmodeA>:
//	compoutmode: Normal port operation, OC0 disconnected; Toggle OC0 on compare match; 
//	Clear OC0 on compare match when up-counting. Set OC0 on compare match when downcounting. Clear OC0 on compare match;
//	Set OC0 on compare match when up-counting. Clear OC0 on compare match when downcounting. Set OC0 on compare match ;
//	default-Normal port operation, OC0 disconnected.
{
	timermega328.tc0.reg->tccr0a &= ~((1 << COM0A0) | (1 << COM0A1));
     810:	e0 91 56 02 	lds	r30, 0x0256	; 0x800256 <timermega328+0x1e>
     814:	f0 91 57 02 	lds	r31, 0x0257	; 0x800257 <timermega328+0x1f>
     818:	97 85       	ldd	r25, Z+15	; 0x0f
     81a:	9f 73       	andi	r25, 0x3F	; 63
     81c:	97 87       	std	Z+15, r25	; 0x0f
	switch(compoutmode){
     81e:	82 30       	cpi	r24, 0x02	; 2
     820:	61 f0       	breq	.+24     	; 0x83a <TIMER_COUNTER0_compoutmodeA+0x2a>
     822:	83 30       	cpi	r24, 0x03	; 3
     824:	91 f0       	breq	.+36     	; 0x84a <TIMER_COUNTER0_compoutmodeA+0x3a>
     826:	81 30       	cpi	r24, 0x01	; 1
     828:	b9 f4       	brne	.+46     	; 0x858 <TIMER_COUNTER0_compoutmodeA+0x48>
		case 0: // Normal port operation, OC0 disconnected.
		break;
		case 1: // Reserved
				// Toggle OC0 on compare match
			timermega328.tc0.reg->tccr0a |= (1 << COM0A0);
     82a:	e0 91 56 02 	lds	r30, 0x0256	; 0x800256 <timermega328+0x1e>
     82e:	f0 91 57 02 	lds	r31, 0x0257	; 0x800257 <timermega328+0x1f>
     832:	87 85       	ldd	r24, Z+15	; 0x0f
     834:	80 64       	ori	r24, 0x40	; 64
     836:	87 87       	std	Z+15, r24	; 0x0f
		break;
     838:	08 95       	ret
		case 2: // Clear OC0 on compare match when up-counting. Set OC0 on compare
				// match when down counting.
				// Clear OC0 on compare match
			timermega328.tc0.reg->tccr0a |= (1 << COM0A1);
     83a:	e0 91 56 02 	lds	r30, 0x0256	; 0x800256 <timermega328+0x1e>
     83e:	f0 91 57 02 	lds	r31, 0x0257	; 0x800257 <timermega328+0x1f>
     842:	87 85       	ldd	r24, Z+15	; 0x0f
     844:	80 68       	ori	r24, 0x80	; 128
     846:	87 87       	std	Z+15, r24	; 0x0f
		break;
     848:	08 95       	ret
		case 3: // Set OC0 on compare match when up-counting. Clear OC0 on compare
				// match when down counting.
				// Set OC0 on compare match
			timermega328.tc0.reg->tccr0a |= (1 << COM0A0) | (1 << COM0A1);
     84a:	e0 91 56 02 	lds	r30, 0x0256	; 0x800256 <timermega328+0x1e>
     84e:	f0 91 57 02 	lds	r31, 0x0257	; 0x800257 <timermega328+0x1f>
     852:	87 85       	ldd	r24, Z+15	; 0x0f
     854:	80 6c       	ori	r24, 0xC0	; 192
     856:	87 87       	std	Z+15, r24	; 0x0f
     858:	08 95       	ret

0000085a <TIMER_COUNTER0_compoutmodeB>:
//	compoutmode: Normal port operation, OC0 disconnected; Toggle OC0 on compare match; 
//	Clear OC0 on compare match when up-counting. Set OC0 on compare match when downcounting. Clear OC0 on compare match;
//	Set OC0 on compare match when up-counting. Clear OC0 on compare match when downcounting. Set OC0 on compare match ;
//	default-Normal port operation, OC0 disconnected.
{
	timermega328.tc0.reg->tccr0a &= ~((1 << COM0B0) | (1 << COM0B1));
     85a:	e0 91 56 02 	lds	r30, 0x0256	; 0x800256 <timermega328+0x1e>
     85e:	f0 91 57 02 	lds	r31, 0x0257	; 0x800257 <timermega328+0x1f>
     862:	97 85       	ldd	r25, Z+15	; 0x0f
     864:	9f 7c       	andi	r25, 0xCF	; 207
     866:	97 87       	std	Z+15, r25	; 0x0f
	switch(compoutmode){ // see table 53, 54, 55 in data sheet for more information
     868:	82 30       	cpi	r24, 0x02	; 2
     86a:	61 f0       	breq	.+24     	; 0x884 <TIMER_COUNTER0_compoutmodeB+0x2a>
     86c:	83 30       	cpi	r24, 0x03	; 3
     86e:	91 f0       	breq	.+36     	; 0x894 <TIMER_COUNTER0_compoutmodeB+0x3a>
     870:	81 30       	cpi	r24, 0x01	; 1
     872:	b9 f4       	brne	.+46     	; 0x8a2 <TIMER_COUNTER0_compoutmodeB+0x48>
		case 0: // Normal port operation, OC0 disconnected.
		break;
		case 1: // Reserved
				// Toggle OC0 on compare match
			timermega328.tc0.reg->tccr0a |= (1 << COM0B0);
     874:	e0 91 56 02 	lds	r30, 0x0256	; 0x800256 <timermega328+0x1e>
     878:	f0 91 57 02 	lds	r31, 0x0257	; 0x800257 <timermega328+0x1f>
     87c:	87 85       	ldd	r24, Z+15	; 0x0f
     87e:	80 61       	ori	r24, 0x10	; 16
     880:	87 87       	std	Z+15, r24	; 0x0f
		break;
     882:	08 95       	ret
		case 2: // Clear OC0 on compare match when up-counting. Set OC0 on compare
				// match when down counting.
				// Clear OC0 on compare match
			timermega328.tc0.reg->tccr0a |= (1 << COM0B1);
     884:	e0 91 56 02 	lds	r30, 0x0256	; 0x800256 <timermega328+0x1e>
     888:	f0 91 57 02 	lds	r31, 0x0257	; 0x800257 <timermega328+0x1f>
     88c:	87 85       	ldd	r24, Z+15	; 0x0f
     88e:	80 62       	ori	r24, 0x20	; 32
     890:	87 87       	std	Z+15, r24	; 0x0f
		break;
     892:	08 95       	ret
		case 3: // Set OC0 on compare match when up-counting. Clear OC0 on compare
				// match when down counting.
				// Set OC0 on compare match
			timermega328.tc0.reg->tccr0a |= (1 << COM0B0) | (1 << COM0B1);
     894:	e0 91 56 02 	lds	r30, 0x0256	; 0x800256 <timermega328+0x1e>
     898:	f0 91 57 02 	lds	r31, 0x0257	; 0x800257 <timermega328+0x1f>
     89c:	87 85       	ldd	r24, Z+15	; 0x0f
     89e:	80 63       	ori	r24, 0x30	; 48
     8a0:	87 87       	std	Z+15, r24	; 0x0f
     8a2:	08 95       	ret

000008a4 <TIMER_COUNTER0_compareA>:
		break;
	}
}
void TIMER_COUNTER0_compareA(unsigned char compare)
{
	timermega328.tc0.reg->ocr0a = compare;
     8a4:	e0 91 56 02 	lds	r30, 0x0256	; 0x800256 <timermega328+0x1e>
     8a8:	f0 91 57 02 	lds	r31, 0x0257	; 0x800257 <timermega328+0x1f>
     8ac:	82 8b       	std	Z+18, r24	; 0x12
     8ae:	08 95       	ret

000008b0 <TIMER_COUNTER0_compareB>:
}
void TIMER_COUNTER0_compareB(unsigned char compare)
{
	timermega328.tc0.reg->ocr0b = compare;
     8b0:	e0 91 56 02 	lds	r30, 0x0256	; 0x800256 <timermega328+0x1e>
     8b4:	f0 91 57 02 	lds	r31, 0x0257	; 0x800257 <timermega328+0x1f>
     8b8:	83 8b       	std	Z+19, r24	; 0x13
     8ba:	08 95       	ret

000008bc <TIMER_COUNTER0_stop>:
}
void TIMER_COUNTER0_stop(void)
// stops timer by setting prescaler to zero
{
	timermega328.tc0.reg->tccr0b &= ~(7 << CS00); // No clock source. (Timer/Counter stopped)
     8bc:	e8 e3       	ldi	r30, 0x38	; 56
     8be:	f2 e0       	ldi	r31, 0x02	; 2
     8c0:	a6 8d       	ldd	r26, Z+30	; 0x1e
     8c2:	b7 8d       	ldd	r27, Z+31	; 0x1f
     8c4:	50 96       	adiw	r26, 0x10	; 16
     8c6:	8c 91       	ld	r24, X
     8c8:	50 97       	sbiw	r26, 0x10	; 16
     8ca:	88 7f       	andi	r24, 0xF8	; 248
     8cc:	50 96       	adiw	r26, 0x10	; 16
     8ce:	8c 93       	st	X, r24
	timermega328.tc0.reg->tcnt0 = 0X00;
     8d0:	06 8c       	ldd	r0, Z+30	; 0x1e
     8d2:	f7 8d       	ldd	r31, Z+31	; 0x1f
     8d4:	e0 2d       	mov	r30, r0
     8d6:	11 8a       	std	Z+17, r1	; 0x11
	timer0_state = 0;
     8d8:	10 92 7d 01 	sts	0x017D, r1	; 0x80017d <timer0_state>
     8dc:	08 95       	ret

000008de <TIMER_COUNTER1_start>:
//	PARAMETER SETTING
//	Frequency oscillator devision factor or prescaler.
//	prescaler: clk T0S /(No prescaling); clk T0S /8 (From prescaler); clk T0S /64 (From prescaler);
//	clk T0S /256 (From prescaler); clk T0S /1024 (From prescaler); External clock source on Tn pin. Clock on falling edge;
//	External clock source on Tn pin. Clock on rising edge; default - clk T 0 S /1024 (From prescaler).
{
     8de:	ef 92       	push	r14
     8e0:	ff 92       	push	r15
     8e2:	0f 93       	push	r16
     8e4:	1f 93       	push	r17
     8e6:	cf 93       	push	r28
     8e8:	df 93       	push	r29
     8ea:	ec 01       	movw	r28, r24
	if(timer1_state == 0){ // one shot
     8ec:	90 91 7c 01 	lds	r25, 0x017C	; 0x80017c <timer1_state>
     8f0:	91 11       	cpse	r25, r1
     8f2:	72 c0       	rjmp	.+228    	; 0x9d8 <__stack+0xd9>
		timermega328.tc1.reg->ocr1a = timermega328.writelhbyte(0xFFFF);
     8f4:	08 e3       	ldi	r16, 0x38	; 56
     8f6:	12 e0       	ldi	r17, 0x02	; 2
     8f8:	d8 01       	movw	r26, r16
     8fa:	5a 96       	adiw	r26, 0x1a	; 26
     8fc:	ed 90       	ld	r14, X+
     8fe:	fc 90       	ld	r15, X
     900:	5b 97       	sbiw	r26, 0x1b	; 27
     902:	b2 e5       	ldi	r27, 0x52	; 82
     904:	eb 0e       	add	r14, r27
     906:	f1 1c       	adc	r15, r1
     908:	d8 01       	movw	r26, r16
     90a:	da 96       	adiw	r26, 0x3a	; 58
     90c:	ed 91       	ld	r30, X+
     90e:	fc 91       	ld	r31, X
     910:	db 97       	sbiw	r26, 0x3b	; 59
     912:	8f ef       	ldi	r24, 0xFF	; 255
     914:	9f ef       	ldi	r25, 0xFF	; 255
     916:	09 95       	icall
     918:	f7 01       	movw	r30, r14
     91a:	91 83       	std	Z+1, r25	; 0x01
     91c:	80 83       	st	Z, r24
		timermega328.tc1.reg->tccr1b &= ~(7 << CS10); // No clock source. (Timer/Counter stopped)
     91e:	d8 01       	movw	r26, r16
     920:	5a 96       	adiw	r26, 0x1a	; 26
     922:	2d 91       	ld	r18, X+
     924:	3c 91       	ld	r19, X
     926:	5b 97       	sbiw	r26, 0x1b	; 27
     928:	f9 01       	movw	r30, r18
     92a:	e5 5b       	subi	r30, 0xB5	; 181
     92c:	ff 4f       	sbci	r31, 0xFF	; 255
     92e:	80 81       	ld	r24, Z
     930:	88 7f       	andi	r24, 0xF8	; 248
     932:	80 83       	st	Z, r24
		switch(prescaler){
     934:	c8 30       	cpi	r28, 0x08	; 8
     936:	d1 05       	cpc	r29, r1
     938:	e1 f0       	breq	.+56     	; 0x972 <__stack+0x73>
     93a:	48 f4       	brcc	.+18     	; 0x94e <__stack+0x4f>
     93c:	c3 30       	cpi	r28, 0x03	; 3
     93e:	d1 05       	cpc	r29, r1
     940:	81 f1       	breq	.+96     	; 0x9a2 <__stack+0xa3>
     942:	c5 30       	cpi	r28, 0x05	; 5
     944:	d1 05       	cpc	r29, r1
     946:	99 f1       	breq	.+102    	; 0x9ae <__stack+0xaf>
     948:	21 97       	sbiw	r28, 0x01	; 1
     94a:	b9 f5       	brne	.+110    	; 0x9ba <__stack+0xbb>
     94c:	0c c0       	rjmp	.+24     	; 0x966 <__stack+0x67>
     94e:	c1 15       	cp	r28, r1
     950:	b1 e0       	ldi	r27, 0x01	; 1
     952:	db 07       	cpc	r29, r27
     954:	d1 f0       	breq	.+52     	; 0x98a <__stack+0x8b>
     956:	c1 15       	cp	r28, r1
     958:	e4 e0       	ldi	r30, 0x04	; 4
     95a:	de 07       	cpc	r29, r30
     95c:	e1 f0       	breq	.+56     	; 0x996 <__stack+0x97>
     95e:	c0 34       	cpi	r28, 0x40	; 64
     960:	d1 05       	cpc	r29, r1
     962:	59 f5       	brne	.+86     	; 0x9ba <__stack+0xbb>
     964:	0c c0       	rjmp	.+24     	; 0x97e <__stack+0x7f>
			case 1: // clkI/O/1 (No prescaler)
				timermega328.tc1.reg->tccr1b |= (1 << CS10);
     966:	f9 01       	movw	r30, r18
     968:	e5 5b       	subi	r30, 0xB5	; 181
     96a:	ff 4f       	sbci	r31, 0xFF	; 255
     96c:	81 60       	ori	r24, 0x01	; 1
     96e:	80 83       	st	Z, r24
			break;
     970:	29 c0       	rjmp	.+82     	; 0x9c4 <__stack+0xc5>
			case 8: // clkI/O/8 (From prescaler)
				timermega328.tc1.reg->tccr1b |= (1 << CS11);
     972:	f9 01       	movw	r30, r18
     974:	e5 5b       	subi	r30, 0xB5	; 181
     976:	ff 4f       	sbci	r31, 0xFF	; 255
     978:	82 60       	ori	r24, 0x02	; 2
     97a:	80 83       	st	Z, r24
			break;
     97c:	23 c0       	rjmp	.+70     	; 0x9c4 <__stack+0xc5>
			case 64: // clkI/O/64 (From prescaler)
				timermega328.tc1.reg->tccr1b |= (3 << CS10);
     97e:	f9 01       	movw	r30, r18
     980:	e5 5b       	subi	r30, 0xB5	; 181
     982:	ff 4f       	sbci	r31, 0xFF	; 255
     984:	83 60       	ori	r24, 0x03	; 3
     986:	80 83       	st	Z, r24
			break;
     988:	1d c0       	rjmp	.+58     	; 0x9c4 <__stack+0xc5>
			case 256: // clkI/O/256 (From prescaler)
				timermega328.tc1.reg->tccr1b |= (1 << CS12);
     98a:	f9 01       	movw	r30, r18
     98c:	e5 5b       	subi	r30, 0xB5	; 181
     98e:	ff 4f       	sbci	r31, 0xFF	; 255
     990:	84 60       	ori	r24, 0x04	; 4
     992:	80 83       	st	Z, r24
			break;
     994:	17 c0       	rjmp	.+46     	; 0x9c4 <__stack+0xc5>
			case 1024: // clkI/O/1024 (From prescaler)
				timermega328.tc1.reg->tccr1b |= (5 << CS10);
     996:	f9 01       	movw	r30, r18
     998:	e5 5b       	subi	r30, 0xB5	; 181
     99a:	ff 4f       	sbci	r31, 0xFF	; 255
     99c:	85 60       	ori	r24, 0x05	; 5
     99e:	80 83       	st	Z, r24
			break;
     9a0:	11 c0       	rjmp	.+34     	; 0x9c4 <__stack+0xc5>
			case 3: // External clock source on Tn pin. Clock on falling edge
				timermega328.tc1.reg->tccr1b |= (6 << CS10);
     9a2:	f9 01       	movw	r30, r18
     9a4:	e5 5b       	subi	r30, 0xB5	; 181
     9a6:	ff 4f       	sbci	r31, 0xFF	; 255
     9a8:	86 60       	ori	r24, 0x06	; 6
     9aa:	80 83       	st	Z, r24
			break;
     9ac:	0b c0       	rjmp	.+22     	; 0x9c4 <__stack+0xc5>
			case 5: // External clock source on Tn pin. Clock on rising edge
				timermega328.tc1.reg->tccr1b |= (7 << CS10);
     9ae:	f9 01       	movw	r30, r18
     9b0:	e5 5b       	subi	r30, 0xB5	; 181
     9b2:	ff 4f       	sbci	r31, 0xFF	; 255
     9b4:	87 60       	ori	r24, 0x07	; 7
     9b6:	80 83       	st	Z, r24
			break;
     9b8:	05 c0       	rjmp	.+10     	; 0x9c4 <__stack+0xc5>
			default:
				timermega328.tc1.reg->tccr1b |= (5 << CS10);
     9ba:	f9 01       	movw	r30, r18
     9bc:	e5 5b       	subi	r30, 0xB5	; 181
     9be:	ff 4f       	sbci	r31, 0xFF	; 255
     9c0:	85 60       	ori	r24, 0x05	; 5
     9c2:	80 83       	st	Z, r24
			break;
		}
		timermega328.cpu.reg->sreg |= (1 << GLOBAL_INTERRUPT_ENABLE);
     9c4:	e0 91 40 02 	lds	r30, 0x0240	; 0x800240 <timermega328+0x8>
     9c8:	f0 91 41 02 	lds	r31, 0x0241	; 0x800241 <timermega328+0x9>
     9cc:	81 a1       	ldd	r24, Z+33	; 0x21
     9ce:	80 68       	ori	r24, 0x80	; 128
     9d0:	81 a3       	std	Z+33, r24	; 0x21
		timer1_state = 1;
     9d2:	81 e0       	ldi	r24, 0x01	; 1
     9d4:	80 93 7c 01 	sts	0x017C, r24	; 0x80017c <timer1_state>
	}	
}
     9d8:	df 91       	pop	r29
     9da:	cf 91       	pop	r28
     9dc:	1f 91       	pop	r17
     9de:	0f 91       	pop	r16
     9e0:	ff 90       	pop	r15
     9e2:	ef 90       	pop	r14
     9e4:	08 95       	ret

000009e6 <TIMER_COUNTER1_compoutmodeA>:
void TIMER_COUNTER1_compoutmodeA(unsigned char compoutmode)
{
	timermega328.tc1.reg->tccr1a &= ~(3 << COM1A0);
     9e6:	20 91 52 02 	lds	r18, 0x0252	; 0x800252 <timermega328+0x1a>
     9ea:	30 91 53 02 	lds	r19, 0x0253	; 0x800253 <timermega328+0x1b>
     9ee:	f9 01       	movw	r30, r18
     9f0:	e6 5b       	subi	r30, 0xB6	; 182
     9f2:	ff 4f       	sbci	r31, 0xFF	; 255
     9f4:	90 81       	ld	r25, Z
     9f6:	9f 73       	andi	r25, 0x3F	; 63
	switch(compoutmode){ // see table 53, 54, 55 in data sheet for more information
     9f8:	82 30       	cpi	r24, 0x02	; 2
     9fa:	61 f0       	breq	.+24     	; 0xa14 <TIMER_COUNTER1_compoutmodeA+0x2e>
     9fc:	83 30       	cpi	r24, 0x03	; 3
     9fe:	81 f0       	breq	.+32     	; 0xa20 <TIMER_COUNTER1_compoutmodeA+0x3a>
     a00:	81 30       	cpi	r24, 0x01	; 1
     a02:	11 f0       	breq	.+4      	; 0xa08 <TIMER_COUNTER1_compoutmodeA+0x22>
		timer1_state = 1;
	}	
}
void TIMER_COUNTER1_compoutmodeA(unsigned char compoutmode)
{
	timermega328.tc1.reg->tccr1a &= ~(3 << COM1A0);
     a04:	90 83       	st	Z, r25
     a06:	08 95       	ret
	switch(compoutmode){ // see table 53, 54, 55 in data sheet for more information
		case 0: // Normal port operation, OC0 disconnected.
		break;
		case 1: // Reserved
				// Toggle OC0 on compare match
			timermega328.tc1.reg->tccr1a |= (1 << COM1A0);
     a08:	f9 01       	movw	r30, r18
     a0a:	e6 5b       	subi	r30, 0xB6	; 182
     a0c:	ff 4f       	sbci	r31, 0xFF	; 255
     a0e:	90 64       	ori	r25, 0x40	; 64
     a10:	90 83       	st	Z, r25
		break;
     a12:	08 95       	ret
		case 2: // Clear OC0 on compare match when up-counting. Set OC0 on compare
				// match when down counting.
				// Clear OC0 on compare match
			timermega328.tc1.reg->tccr1a |= (1 << COM1A1);
     a14:	f9 01       	movw	r30, r18
     a16:	e6 5b       	subi	r30, 0xB6	; 182
     a18:	ff 4f       	sbci	r31, 0xFF	; 255
     a1a:	90 68       	ori	r25, 0x80	; 128
     a1c:	90 83       	st	Z, r25
		break;
     a1e:	08 95       	ret
		case 3: // Set OC0 on compare match when up-counting. Clear OC0 on compare
				// match when down counting.
				// Set OC0 on compare match
			timermega328.tc1.reg->tccr1a |= (1 << COM1A0) | (1 << COM1A1);
     a20:	f9 01       	movw	r30, r18
     a22:	e6 5b       	subi	r30, 0xB6	; 182
     a24:	ff 4f       	sbci	r31, 0xFF	; 255
     a26:	90 6c       	ori	r25, 0xC0	; 192
     a28:	90 83       	st	Z, r25
     a2a:	08 95       	ret

00000a2c <TIMER_COUNTER1_compoutmodeB>:
		break;
	}
}
void TIMER_COUNTER1_compoutmodeB(unsigned char compoutmode)
{
	timermega328.tc1.reg->tccr1a &= ~(3 << COM1B0);
     a2c:	20 91 52 02 	lds	r18, 0x0252	; 0x800252 <timermega328+0x1a>
     a30:	30 91 53 02 	lds	r19, 0x0253	; 0x800253 <timermega328+0x1b>
     a34:	f9 01       	movw	r30, r18
     a36:	e6 5b       	subi	r30, 0xB6	; 182
     a38:	ff 4f       	sbci	r31, 0xFF	; 255
     a3a:	90 81       	ld	r25, Z
     a3c:	9f 7c       	andi	r25, 0xCF	; 207
	switch(compoutmode){ // see table 53, 54, 55 in data sheet for more information
     a3e:	82 30       	cpi	r24, 0x02	; 2
     a40:	61 f0       	breq	.+24     	; 0xa5a <TIMER_COUNTER1_compoutmodeB+0x2e>
     a42:	83 30       	cpi	r24, 0x03	; 3
     a44:	81 f0       	breq	.+32     	; 0xa66 <TIMER_COUNTER1_compoutmodeB+0x3a>
     a46:	81 30       	cpi	r24, 0x01	; 1
     a48:	11 f0       	breq	.+4      	; 0xa4e <TIMER_COUNTER1_compoutmodeB+0x22>
		break;
	}
}
void TIMER_COUNTER1_compoutmodeB(unsigned char compoutmode)
{
	timermega328.tc1.reg->tccr1a &= ~(3 << COM1B0);
     a4a:	90 83       	st	Z, r25
     a4c:	08 95       	ret
	switch(compoutmode){ // see table 53, 54, 55 in data sheet for more information
		case 0: // Normal port operation, OC0 disconnected.
		break;
		case 1: // Reserved
				// Toggle OC0 on compare match
			timermega328.tc1.reg->tccr1a |= (1 << COM1B0);
     a4e:	f9 01       	movw	r30, r18
     a50:	e6 5b       	subi	r30, 0xB6	; 182
     a52:	ff 4f       	sbci	r31, 0xFF	; 255
     a54:	90 61       	ori	r25, 0x10	; 16
     a56:	90 83       	st	Z, r25
		break;
     a58:	08 95       	ret
		case 2: // Clear OC0 on compare match when up-counting. Set OC0 on compare
				// match when down counting.
				// Clear OC0 on compare match
			timermega328.tc1.reg->tccr1a |= (1 << COM1B1);
     a5a:	f9 01       	movw	r30, r18
     a5c:	e6 5b       	subi	r30, 0xB6	; 182
     a5e:	ff 4f       	sbci	r31, 0xFF	; 255
     a60:	90 62       	ori	r25, 0x20	; 32
     a62:	90 83       	st	Z, r25
		break;
     a64:	08 95       	ret
		case 3: // Set OC0 on compare match when up-counting. Clear OC0 on compare
				// match when down counting.
				// Set OC0 on compare match
			timermega328.tc1.reg->tccr1a |= (1 << COM1B0) | (1 << COM1B1);
     a66:	f9 01       	movw	r30, r18
     a68:	e6 5b       	subi	r30, 0xB6	; 182
     a6a:	ff 4f       	sbci	r31, 0xFF	; 255
     a6c:	90 63       	ori	r25, 0x30	; 48
     a6e:	90 83       	st	Z, r25
     a70:	08 95       	ret

00000a72 <TIMER_COUNTER1_compareA>:
		default:
		break;
	}
}
void TIMER_COUNTER1_compareA(uint16_t compare)
{
     a72:	cf 93       	push	r28
     a74:	df 93       	push	r29
	timermega328.tc1.reg->ocr1a = timermega328.writelhbyte(compare);
     a76:	e8 e3       	ldi	r30, 0x38	; 56
     a78:	f2 e0       	ldi	r31, 0x02	; 2
     a7a:	c2 8d       	ldd	r28, Z+26	; 0x1a
     a7c:	d3 8d       	ldd	r29, Z+27	; 0x1b
     a7e:	ce 5a       	subi	r28, 0xAE	; 174
     a80:	df 4f       	sbci	r29, 0xFF	; 255
     a82:	02 ac       	ldd	r0, Z+58	; 0x3a
     a84:	f3 ad       	ldd	r31, Z+59	; 0x3b
     a86:	e0 2d       	mov	r30, r0
     a88:	09 95       	icall
     a8a:	99 83       	std	Y+1, r25	; 0x01
     a8c:	88 83       	st	Y, r24
}
     a8e:	df 91       	pop	r29
     a90:	cf 91       	pop	r28
     a92:	08 95       	ret

00000a94 <TIMER_COUNTER1_compareB>:
void TIMER_COUNTER1_compareB(uint16_t compare)
{
     a94:	cf 93       	push	r28
     a96:	df 93       	push	r29
	timermega328.tc1.reg->ocr1b = timermega328.writelhbyte(compare);
     a98:	e8 e3       	ldi	r30, 0x38	; 56
     a9a:	f2 e0       	ldi	r31, 0x02	; 2
     a9c:	c2 8d       	ldd	r28, Z+26	; 0x1a
     a9e:	d3 8d       	ldd	r29, Z+27	; 0x1b
     aa0:	cc 5a       	subi	r28, 0xAC	; 172
     aa2:	df 4f       	sbci	r29, 0xFF	; 255
     aa4:	02 ac       	ldd	r0, Z+58	; 0x3a
     aa6:	f3 ad       	ldd	r31, Z+59	; 0x3b
     aa8:	e0 2d       	mov	r30, r0
     aaa:	09 95       	icall
     aac:	99 83       	std	Y+1, r25	; 0x01
     aae:	88 83       	st	Y, r24
}
     ab0:	df 91       	pop	r29
     ab2:	cf 91       	pop	r28
     ab4:	08 95       	ret

00000ab6 <TIMER_COUNTER1_stop>:
void TIMER_COUNTER1_stop(void)
// stops timer by setting prescaler to zero
{
     ab6:	cf 93       	push	r28
     ab8:	df 93       	push	r29
	timermega328.tc1.reg->tccr1b &= ~(7 << CS10); // No clock source. (Timer/Counter stopped)
     aba:	e8 e3       	ldi	r30, 0x38	; 56
     abc:	f2 e0       	ldi	r31, 0x02	; 2
     abe:	82 8d       	ldd	r24, Z+26	; 0x1a
     ac0:	93 8d       	ldd	r25, Z+27	; 0x1b
     ac2:	dc 01       	movw	r26, r24
     ac4:	a5 5b       	subi	r26, 0xB5	; 181
     ac6:	bf 4f       	sbci	r27, 0xFF	; 255
     ac8:	2c 91       	ld	r18, X
     aca:	28 7f       	andi	r18, 0xF8	; 248
     acc:	2c 93       	st	X, r18
	timermega328.tc1.reg->tcnt1 = timermega328.writelhbyte(0X0000);
     ace:	ec 01       	movw	r28, r24
     ad0:	c2 5b       	subi	r28, 0xB2	; 178
     ad2:	df 4f       	sbci	r29, 0xFF	; 255
     ad4:	02 ac       	ldd	r0, Z+58	; 0x3a
     ad6:	f3 ad       	ldd	r31, Z+59	; 0x3b
     ad8:	e0 2d       	mov	r30, r0
     ada:	80 e0       	ldi	r24, 0x00	; 0
     adc:	90 e0       	ldi	r25, 0x00	; 0
     ade:	09 95       	icall
     ae0:	99 83       	std	Y+1, r25	; 0x01
     ae2:	88 83       	st	Y, r24
	timer1_state = 0;
     ae4:	10 92 7c 01 	sts	0x017C, r1	; 0x80017c <timer1_state>
}
     ae8:	df 91       	pop	r29
     aea:	cf 91       	pop	r28
     aec:	08 95       	ret

00000aee <TIMER_COUNTER2_start>:
//	PARAMETER SETTING
//	Frequency oscillator devision factor or prescaler.
//	prescaler: clk T0S /(No prescaling); clk T0S /8 (From prescaler); clk T0S /64 (From prescaler);
//	clk T0S /256 (From prescaler); clk T0S /1024 (From prescaler); External clock source on Tn pin. Clock on falling edge;
//	External clock source on Tn pin. Clock on rising edge; default - clk T 0 S /1024 (From prescaler).
{
     aee:	ac 01       	movw	r20, r24
	if(timer2_state == 0){ // one shot
     af0:	80 91 7b 01 	lds	r24, 0x017B	; 0x80017b <timer2_state>
     af4:	81 11       	cpse	r24, r1
     af6:	60 c0       	rjmp	.+192    	; 0xbb8 <TIMER_COUNTER2_start+0xca>
		timermega328.tc2.reg->ocr2a = 0XFF;
     af8:	20 91 5a 02 	lds	r18, 0x025A	; 0x80025a <timermega328+0x22>
     afc:	30 91 5b 02 	lds	r19, 0x025B	; 0x80025b <timermega328+0x23>
     b00:	f9 01       	movw	r30, r18
     b02:	e4 58       	subi	r30, 0x84	; 132
     b04:	ff 4f       	sbci	r31, 0xFF	; 255
     b06:	8f ef       	ldi	r24, 0xFF	; 255
     b08:	80 83       	st	Z, r24
		timermega328.tc2.reg->tccr2b &= ~(7 << CS20); // No clock source. (Timer/Counter stopped)
     b0a:	32 97       	sbiw	r30, 0x02	; 2
     b0c:	90 81       	ld	r25, Z
     b0e:	98 7f       	andi	r25, 0xF8	; 248
     b10:	90 83       	st	Z, r25
		switch(prescaler){
     b12:	40 34       	cpi	r20, 0x40	; 64
     b14:	51 05       	cpc	r21, r1
     b16:	49 f1       	breq	.+82     	; 0xb6a <TIMER_COUNTER2_start+0x7c>
     b18:	50 f4       	brcc	.+20     	; 0xb2e <TIMER_COUNTER2_start+0x40>
     b1a:	48 30       	cpi	r20, 0x08	; 8
     b1c:	51 05       	cpc	r21, r1
     b1e:	c9 f0       	breq	.+50     	; 0xb52 <TIMER_COUNTER2_start+0x64>
     b20:	40 32       	cpi	r20, 0x20	; 32
     b22:	51 05       	cpc	r21, r1
     b24:	e1 f0       	breq	.+56     	; 0xb5e <TIMER_COUNTER2_start+0x70>
     b26:	41 30       	cpi	r20, 0x01	; 1
     b28:	51 05       	cpc	r21, r1
     b2a:	b9 f5       	brne	.+110    	; 0xb9a <TIMER_COUNTER2_start+0xac>
     b2c:	0c c0       	rjmp	.+24     	; 0xb46 <TIMER_COUNTER2_start+0x58>
     b2e:	41 15       	cp	r20, r1
     b30:	81 e0       	ldi	r24, 0x01	; 1
     b32:	58 07       	cpc	r21, r24
     b34:	31 f1       	breq	.+76     	; 0xb82 <TIMER_COUNTER2_start+0x94>
     b36:	41 15       	cp	r20, r1
     b38:	84 e0       	ldi	r24, 0x04	; 4
     b3a:	58 07       	cpc	r21, r24
     b3c:	41 f1       	breq	.+80     	; 0xb8e <TIMER_COUNTER2_start+0xa0>
     b3e:	40 38       	cpi	r20, 0x80	; 128
     b40:	51 05       	cpc	r21, r1
     b42:	59 f5       	brne	.+86     	; 0xb9a <TIMER_COUNTER2_start+0xac>
     b44:	18 c0       	rjmp	.+48     	; 0xb76 <TIMER_COUNTER2_start+0x88>
			case 1: // clkI/O/(No prescaler)
				timermega328.tc2.reg->tccr2b |= (1 << CS20);
     b46:	f9 01       	movw	r30, r18
     b48:	e6 58       	subi	r30, 0x86	; 134
     b4a:	ff 4f       	sbci	r31, 0xFF	; 255
     b4c:	91 60       	ori	r25, 0x01	; 1
     b4e:	90 83       	st	Z, r25
			break;
     b50:	29 c0       	rjmp	.+82     	; 0xba4 <TIMER_COUNTER2_start+0xb6>
			case 8: // clkI/O/8 (From prescaler)
				timermega328.tc2.reg->tccr2b |= (1 << CS21);
     b52:	f9 01       	movw	r30, r18
     b54:	e6 58       	subi	r30, 0x86	; 134
     b56:	ff 4f       	sbci	r31, 0xFF	; 255
     b58:	92 60       	ori	r25, 0x02	; 2
     b5a:	90 83       	st	Z, r25
			break;
     b5c:	23 c0       	rjmp	.+70     	; 0xba4 <TIMER_COUNTER2_start+0xb6>
			case 32: // clkI/O/32 (From prescaler)
				timermega328.tc2.reg->tccr2b |= (1 << CS21) | (1 << CS20);
     b5e:	f9 01       	movw	r30, r18
     b60:	e6 58       	subi	r30, 0x86	; 134
     b62:	ff 4f       	sbci	r31, 0xFF	; 255
     b64:	93 60       	ori	r25, 0x03	; 3
     b66:	90 83       	st	Z, r25
			break;
     b68:	1d c0       	rjmp	.+58     	; 0xba4 <TIMER_COUNTER2_start+0xb6>
			case 64: // clkI/O/64 (From prescaler)
				timermega328.tc2.reg->tccr2b |= (1 << CS22);
     b6a:	f9 01       	movw	r30, r18
     b6c:	e6 58       	subi	r30, 0x86	; 134
     b6e:	ff 4f       	sbci	r31, 0xFF	; 255
     b70:	94 60       	ori	r25, 0x04	; 4
     b72:	90 83       	st	Z, r25
			break;
     b74:	17 c0       	rjmp	.+46     	; 0xba4 <TIMER_COUNTER2_start+0xb6>
			case 128: // clkI/O/128 (From prescaler)
				timermega328.tc2.reg->tccr2b |= (1 << CS22) | (1 << CS20);
     b76:	f9 01       	movw	r30, r18
     b78:	e6 58       	subi	r30, 0x86	; 134
     b7a:	ff 4f       	sbci	r31, 0xFF	; 255
     b7c:	95 60       	ori	r25, 0x05	; 5
     b7e:	90 83       	st	Z, r25
			break;
     b80:	11 c0       	rjmp	.+34     	; 0xba4 <TIMER_COUNTER2_start+0xb6>
			case 256: // clkI/O/256 (From prescaler)
				timermega328.tc2.reg->tccr2b |= (1 << CS22) | (1 << CS21);
     b82:	f9 01       	movw	r30, r18
     b84:	e6 58       	subi	r30, 0x86	; 134
     b86:	ff 4f       	sbci	r31, 0xFF	; 255
     b88:	96 60       	ori	r25, 0x06	; 6
     b8a:	90 83       	st	Z, r25
			break;
     b8c:	0b c0       	rjmp	.+22     	; 0xba4 <TIMER_COUNTER2_start+0xb6>
			case 1024: // clkI/O/1024 (From prescaler)
				timermega328.tc2.reg->tccr2b |= (7 << CS20);
     b8e:	f9 01       	movw	r30, r18
     b90:	e6 58       	subi	r30, 0x86	; 134
     b92:	ff 4f       	sbci	r31, 0xFF	; 255
     b94:	97 60       	ori	r25, 0x07	; 7
     b96:	90 83       	st	Z, r25
			break;
     b98:	05 c0       	rjmp	.+10     	; 0xba4 <TIMER_COUNTER2_start+0xb6>
			default:
				timermega328.tc2.reg->tccr2b |= (7 << CS20);
     b9a:	f9 01       	movw	r30, r18
     b9c:	e6 58       	subi	r30, 0x86	; 134
     b9e:	ff 4f       	sbci	r31, 0xFF	; 255
     ba0:	97 60       	ori	r25, 0x07	; 7
     ba2:	90 83       	st	Z, r25
			break;
		}
		timermega328.cpu.reg->sreg |= (1 << GLOBAL_INTERRUPT_ENABLE);
     ba4:	e0 91 40 02 	lds	r30, 0x0240	; 0x800240 <timermega328+0x8>
     ba8:	f0 91 41 02 	lds	r31, 0x0241	; 0x800241 <timermega328+0x9>
     bac:	81 a1       	ldd	r24, Z+33	; 0x21
     bae:	80 68       	ori	r24, 0x80	; 128
     bb0:	81 a3       	std	Z+33, r24	; 0x21
		timer2_state = 1;
     bb2:	81 e0       	ldi	r24, 0x01	; 1
     bb4:	80 93 7b 01 	sts	0x017B, r24	; 0x80017b <timer2_state>
     bb8:	08 95       	ret

00000bba <TIMER_COUNTER2_compoutmodeA>:
//	compoutmode: Normal port operation, OC0 disconnected; Toggle OC0 on compare match; 
//	Clear OC0 on compare match when up-counting. Set OC0 on compare match when downcounting. Clear OC0 on compare match;
//	Set OC0 on compare match when up-counting. Clear OC0 on compare match when downcounting. Set OC0 on compare match ;
//	default-Normal port operation, OC0 disconnected.
{
	timermega328.tc2.reg->tccr2a &= ~((1 << COM2A0) | (1 << COM2A1));
     bba:	20 91 5a 02 	lds	r18, 0x025A	; 0x80025a <timermega328+0x22>
     bbe:	30 91 5b 02 	lds	r19, 0x025B	; 0x80025b <timermega328+0x23>
     bc2:	f9 01       	movw	r30, r18
     bc4:	e7 58       	subi	r30, 0x87	; 135
     bc6:	ff 4f       	sbci	r31, 0xFF	; 255
     bc8:	90 81       	ld	r25, Z
     bca:	9f 73       	andi	r25, 0x3F	; 63
	switch(compoutmode){ // see table 53, 54, 55 in data sheet for more information
     bcc:	82 30       	cpi	r24, 0x02	; 2
     bce:	61 f0       	breq	.+24     	; 0xbe8 <TIMER_COUNTER2_compoutmodeA+0x2e>
     bd0:	83 30       	cpi	r24, 0x03	; 3
     bd2:	81 f0       	breq	.+32     	; 0xbf4 <TIMER_COUNTER2_compoutmodeA+0x3a>
     bd4:	81 30       	cpi	r24, 0x01	; 1
     bd6:	11 f0       	breq	.+4      	; 0xbdc <TIMER_COUNTER2_compoutmodeA+0x22>
//	compoutmode: Normal port operation, OC0 disconnected; Toggle OC0 on compare match; 
//	Clear OC0 on compare match when up-counting. Set OC0 on compare match when downcounting. Clear OC0 on compare match;
//	Set OC0 on compare match when up-counting. Clear OC0 on compare match when downcounting. Set OC0 on compare match ;
//	default-Normal port operation, OC0 disconnected.
{
	timermega328.tc2.reg->tccr2a &= ~((1 << COM2A0) | (1 << COM2A1));
     bd8:	90 83       	st	Z, r25
     bda:	08 95       	ret
	switch(compoutmode){ // see table 53, 54, 55 in data sheet for more information
		case 0: // Normal port operation, OC0 disconnected.
		break;
		case 1: // Reserved
				// Toggle OC0 on compare match
			timermega328.tc2.reg->tccr2a |= (1 << COM2A0);
     bdc:	f9 01       	movw	r30, r18
     bde:	e7 58       	subi	r30, 0x87	; 135
     be0:	ff 4f       	sbci	r31, 0xFF	; 255
     be2:	90 64       	ori	r25, 0x40	; 64
     be4:	90 83       	st	Z, r25
		break;
     be6:	08 95       	ret
		case 2: // Clear OC0 on compare match when up-counting. Set OC0 on compare
				// match when down counting.
				// Clear OC0 on compare match
			timermega328.tc2.reg->tccr2a |= (1 << COM2A1);
     be8:	f9 01       	movw	r30, r18
     bea:	e7 58       	subi	r30, 0x87	; 135
     bec:	ff 4f       	sbci	r31, 0xFF	; 255
     bee:	90 68       	ori	r25, 0x80	; 128
     bf0:	90 83       	st	Z, r25
		break;
     bf2:	08 95       	ret
		case 3: // Set OC0 on compare match when up-counting. Clear OC0 on compare
				// match when down counting.
				// Set OC0 on compare match
			timermega328.tc2.reg->tccr2a |= (1 << COM2A0) | (1 << COM2A1);
     bf4:	f9 01       	movw	r30, r18
     bf6:	e7 58       	subi	r30, 0x87	; 135
     bf8:	ff 4f       	sbci	r31, 0xFF	; 255
     bfa:	90 6c       	ori	r25, 0xC0	; 192
     bfc:	90 83       	st	Z, r25
     bfe:	08 95       	ret

00000c00 <TIMER_COUNTER2_compoutmodeB>:
//	compoutmode: Normal port operation, OC0 disconnected; Toggle OC0 on compare match; 
//	Clear OC0 on compare match when up-counting. Set OC0 on compare match when downcounting. Clear OC0 on compare match;
//	Set OC0 on compare match when up-counting. Clear OC0 on compare match when downcounting. Set OC0 on compare match ;
//	default-Normal port operation, OC0 disconnected.
{
	timermega328.tc2.reg->tccr2a &= ~((1 << COM2B0) | (1 << COM2B1));
     c00:	20 91 5a 02 	lds	r18, 0x025A	; 0x80025a <timermega328+0x22>
     c04:	30 91 5b 02 	lds	r19, 0x025B	; 0x80025b <timermega328+0x23>
     c08:	f9 01       	movw	r30, r18
     c0a:	e7 58       	subi	r30, 0x87	; 135
     c0c:	ff 4f       	sbci	r31, 0xFF	; 255
     c0e:	90 81       	ld	r25, Z
     c10:	9f 7c       	andi	r25, 0xCF	; 207
	switch(compoutmode){ // see table 53, 54, 55 in data sheet for more information
     c12:	82 30       	cpi	r24, 0x02	; 2
     c14:	61 f0       	breq	.+24     	; 0xc2e <TIMER_COUNTER2_compoutmodeB+0x2e>
     c16:	83 30       	cpi	r24, 0x03	; 3
     c18:	81 f0       	breq	.+32     	; 0xc3a <TIMER_COUNTER2_compoutmodeB+0x3a>
     c1a:	81 30       	cpi	r24, 0x01	; 1
     c1c:	11 f0       	breq	.+4      	; 0xc22 <TIMER_COUNTER2_compoutmodeB+0x22>
//	compoutmode: Normal port operation, OC0 disconnected; Toggle OC0 on compare match; 
//	Clear OC0 on compare match when up-counting. Set OC0 on compare match when downcounting. Clear OC0 on compare match;
//	Set OC0 on compare match when up-counting. Clear OC0 on compare match when downcounting. Set OC0 on compare match ;
//	default-Normal port operation, OC0 disconnected.
{
	timermega328.tc2.reg->tccr2a &= ~((1 << COM2B0) | (1 << COM2B1));
     c1e:	90 83       	st	Z, r25
     c20:	08 95       	ret
	switch(compoutmode){ // see table 53, 54, 55 in data sheet for more information
		case 0: // Normal port operation, OC0 disconnected.
		break;
		case 1: // Reserved
				// Toggle OC0 on compare match
			timermega328.tc2.reg->tccr2a |= (1 << COM2B0);
     c22:	f9 01       	movw	r30, r18
     c24:	e7 58       	subi	r30, 0x87	; 135
     c26:	ff 4f       	sbci	r31, 0xFF	; 255
     c28:	90 61       	ori	r25, 0x10	; 16
     c2a:	90 83       	st	Z, r25
		break;
     c2c:	08 95       	ret
		case 2: // Clear OC0 on compare match when up-counting. Set OC0 on compare
				// match when down counting.
				// Clear OC0 on compare match
			timermega328.tc2.reg->tccr2a |= (1 << COM2B1);
     c2e:	f9 01       	movw	r30, r18
     c30:	e7 58       	subi	r30, 0x87	; 135
     c32:	ff 4f       	sbci	r31, 0xFF	; 255
     c34:	90 62       	ori	r25, 0x20	; 32
     c36:	90 83       	st	Z, r25
		break;
     c38:	08 95       	ret
		case 3: // Set OC0 on compare match when up-counting. Clear OC0 on compare
				// match when down counting.
				// Set OC0 on compare match
			timermega328.tc2.reg->tccr2a |= (1 << COM2B0) | (1 << COM2B1);
     c3a:	f9 01       	movw	r30, r18
     c3c:	e7 58       	subi	r30, 0x87	; 135
     c3e:	ff 4f       	sbci	r31, 0xFF	; 255
     c40:	90 63       	ori	r25, 0x30	; 48
     c42:	90 83       	st	Z, r25
     c44:	08 95       	ret

00000c46 <TIMER_COUNTER2_compareA>:
		break;
	}
}
void TIMER_COUNTER2_compareA(unsigned char compare)
{
	timermega328.tc2.reg->ocr2a = compare;
     c46:	e0 91 5a 02 	lds	r30, 0x025A	; 0x80025a <timermega328+0x22>
     c4a:	f0 91 5b 02 	lds	r31, 0x025B	; 0x80025b <timermega328+0x23>
     c4e:	e4 58       	subi	r30, 0x84	; 132
     c50:	ff 4f       	sbci	r31, 0xFF	; 255
     c52:	80 83       	st	Z, r24
     c54:	08 95       	ret

00000c56 <TIMER_COUNTER2_compareB>:
}
	void TIMER_COUNTER2_compareB(unsigned char compare)
{
	timermega328.tc2.reg->ocr2b = compare;
     c56:	e0 91 5a 02 	lds	r30, 0x025A	; 0x80025a <timermega328+0x22>
     c5a:	f0 91 5b 02 	lds	r31, 0x025B	; 0x80025b <timermega328+0x23>
     c5e:	e3 58       	subi	r30, 0x83	; 131
     c60:	ff 4f       	sbci	r31, 0xFF	; 255
     c62:	80 83       	st	Z, r24
     c64:	08 95       	ret

00000c66 <TIMER_COUNTER2_stop>:
}
void TIMER_COUNTER2_stop(void)
// stops timer by setting prescaler to zero
{
	timermega328.tc2.reg->tccr2b &= ~(7 << CS20); // No clock source. (Timer/Counter stopped)
     c66:	80 91 5a 02 	lds	r24, 0x025A	; 0x80025a <timermega328+0x22>
     c6a:	90 91 5b 02 	lds	r25, 0x025B	; 0x80025b <timermega328+0x23>
     c6e:	fc 01       	movw	r30, r24
     c70:	e6 58       	subi	r30, 0x86	; 134
     c72:	ff 4f       	sbci	r31, 0xFF	; 255
     c74:	20 81       	ld	r18, Z
     c76:	28 7f       	andi	r18, 0xF8	; 248
     c78:	20 83       	st	Z, r18
	timermega328.tc2.reg->tcnt2 = 0X00;
     c7a:	31 96       	adiw	r30, 0x01	; 1
     c7c:	10 82       	st	Z, r1
	timer2_state = 0;
     c7e:	10 92 7b 01 	sts	0x017B, r1	; 0x80017b <timer2_state>
     c82:	08 95       	ret

00000c84 <TIMER_COUNTER0enable>:
/*** Procedure & Function ***/
TIMER_COUNTER0 TIMER_COUNTER0enable(unsigned char wavegenmode, unsigned char interrupt)
//	PARAMETER SETTING
//	wavegen mode: Normal; PWM phase correct; Fast PWM; default-Normasl;
//	interrupt: off; overflow; output compare; both; default - non.
{
     c84:	ef 92       	push	r14
     c86:	ff 92       	push	r15
     c88:	0f 93       	push	r16
     c8a:	1f 93       	push	r17
     c8c:	cf 93       	push	r28
     c8e:	df 93       	push	r29
     c90:	cd b7       	in	r28, 0x3d	; 61
     c92:	de b7       	in	r29, 0x3e	; 62
     c94:	ee 97       	sbiw	r28, 0x3e	; 62
     c96:	0f b6       	in	r0, 0x3f	; 63
     c98:	f8 94       	cli
     c9a:	de bf       	out	0x3e, r29	; 62
     c9c:	0f be       	out	0x3f, r0	; 63
     c9e:	cd bf       	out	0x3d, r28	; 61
     ca0:	8c 01       	movw	r16, r24
     ca2:	e6 2e       	mov	r14, r22
     ca4:	f4 2e       	mov	r15, r20
	timermega328 = ATMEGA328enable();
     ca6:	ce 01       	movw	r24, r28
     ca8:	01 96       	adiw	r24, 0x01	; 1
     caa:	0e 94 17 03 	call	0x62e	; 0x62e <ATMEGA328enable>
     cae:	8e e3       	ldi	r24, 0x3E	; 62
     cb0:	fe 01       	movw	r30, r28
     cb2:	31 96       	adiw	r30, 0x01	; 1
     cb4:	a8 e3       	ldi	r26, 0x38	; 56
     cb6:	b2 e0       	ldi	r27, 0x02	; 2
     cb8:	01 90       	ld	r0, Z+
     cba:	0d 92       	st	X+, r0
     cbc:	8a 95       	dec	r24
     cbe:	e1 f7       	brne	.-8      	; 0xcb8 <TIMER_COUNTER0enable+0x34>
	TIMER_COUNTER0 timer0;
	
	timer0_state = 0;
     cc0:	10 92 7d 01 	sts	0x017D, r1	; 0x80017d <timer0_state>
	timermega328.tc0.reg->tccr0a &= ~((1 << WGM01) | (1 << WGM00));
     cc4:	e8 e3       	ldi	r30, 0x38	; 56
     cc6:	f2 e0       	ldi	r31, 0x02	; 2
     cc8:	a6 8d       	ldd	r26, Z+30	; 0x1e
     cca:	b7 8d       	ldd	r27, Z+31	; 0x1f
     ccc:	1f 96       	adiw	r26, 0x0f	; 15
     cce:	8c 91       	ld	r24, X
     cd0:	1f 97       	sbiw	r26, 0x0f	; 15
     cd2:	8c 7f       	andi	r24, 0xFC	; 252
     cd4:	1f 96       	adiw	r26, 0x0f	; 15
     cd6:	8c 93       	st	X, r24
	timermega328.tc0.reg->tccr0b &= ~(1 << WGM02);
     cd8:	06 8c       	ldd	r0, Z+30	; 0x1e
     cda:	f7 8d       	ldd	r31, Z+31	; 0x1f
     cdc:	e0 2d       	mov	r30, r0
     cde:	80 89       	ldd	r24, Z+16	; 0x10
     ce0:	87 7f       	andi	r24, 0xF7	; 247
     ce2:	80 8b       	std	Z+16, r24	; 0x10
	switch(wavegenmode){
     ce4:	83 e0       	ldi	r24, 0x03	; 3
     ce6:	e8 16       	cp	r14, r24
     ce8:	01 f1       	breq	.+64     	; 0xd2a <TIMER_COUNTER0enable+0xa6>
     cea:	8e 15       	cp	r24, r14
     cec:	38 f0       	brcs	.+14     	; 0xcfc <TIMER_COUNTER0enable+0x78>
     cee:	e1 e0       	ldi	r30, 0x01	; 1
     cf0:	ee 16       	cp	r14, r30
     cf2:	59 f0       	breq	.+22     	; 0xd0a <TIMER_COUNTER0enable+0x86>
     cf4:	f2 e0       	ldi	r31, 0x02	; 2
     cf6:	ef 16       	cp	r14, r31
     cf8:	81 f0       	breq	.+32     	; 0xd1a <TIMER_COUNTER0enable+0x96>
     cfa:	40 c0       	rjmp	.+128    	; 0xd7c <TIMER_COUNTER0enable+0xf8>
     cfc:	85 e0       	ldi	r24, 0x05	; 5
     cfe:	e8 16       	cp	r14, r24
     d00:	e1 f0       	breq	.+56     	; 0xd3a <TIMER_COUNTER0enable+0xb6>
     d02:	e7 e0       	ldi	r30, 0x07	; 7
     d04:	ee 16       	cp	r14, r30
     d06:	51 f1       	breq	.+84     	; 0xd5c <TIMER_COUNTER0enable+0xd8>
     d08:	39 c0       	rjmp	.+114    	; 0xd7c <TIMER_COUNTER0enable+0xf8>
		case 0: // Normal
		break;
		case 1: // PWM, Phase Correct, 8-bit
			timermega328.tc0.reg->tccr0a |= (1 << WGM00);
     d0a:	e0 91 56 02 	lds	r30, 0x0256	; 0x800256 <timermega328+0x1e>
     d0e:	f0 91 57 02 	lds	r31, 0x0257	; 0x800257 <timermega328+0x1f>
     d12:	87 85       	ldd	r24, Z+15	; 0x0f
     d14:	81 60       	ori	r24, 0x01	; 1
     d16:	87 87       	std	Z+15, r24	; 0x0f
		break;
     d18:	31 c0       	rjmp	.+98     	; 0xd7c <TIMER_COUNTER0enable+0xf8>
		case 2: // PWM, Phase Correct, 9-bit
			timermega328.tc0.reg->tccr0a |= (1 << WGM01);
     d1a:	e0 91 56 02 	lds	r30, 0x0256	; 0x800256 <timermega328+0x1e>
     d1e:	f0 91 57 02 	lds	r31, 0x0257	; 0x800257 <timermega328+0x1f>
     d22:	87 85       	ldd	r24, Z+15	; 0x0f
     d24:	82 60       	ori	r24, 0x02	; 2
     d26:	87 87       	std	Z+15, r24	; 0x0f
		break;
     d28:	29 c0       	rjmp	.+82     	; 0xd7c <TIMER_COUNTER0enable+0xf8>
		case 3: // Fast PWM
			timermega328.tc0.reg->tccr0a |= (1 << WGM00) | (1 << WGM01);
     d2a:	e0 91 56 02 	lds	r30, 0x0256	; 0x800256 <timermega328+0x1e>
     d2e:	f0 91 57 02 	lds	r31, 0x0257	; 0x800257 <timermega328+0x1f>
     d32:	87 85       	ldd	r24, Z+15	; 0x0f
     d34:	83 60       	ori	r24, 0x03	; 3
     d36:	87 87       	std	Z+15, r24	; 0x0f
		break;
     d38:	21 c0       	rjmp	.+66     	; 0xd7c <TIMER_COUNTER0enable+0xf8>
		case 5: // PWM, Phase Correct
			timermega328.tc0.reg->tccr0a |= (1 << WGM00);
     d3a:	e8 e3       	ldi	r30, 0x38	; 56
     d3c:	f2 e0       	ldi	r31, 0x02	; 2
     d3e:	a6 8d       	ldd	r26, Z+30	; 0x1e
     d40:	b7 8d       	ldd	r27, Z+31	; 0x1f
     d42:	1f 96       	adiw	r26, 0x0f	; 15
     d44:	8c 91       	ld	r24, X
     d46:	1f 97       	sbiw	r26, 0x0f	; 15
     d48:	81 60       	ori	r24, 0x01	; 1
     d4a:	1f 96       	adiw	r26, 0x0f	; 15
     d4c:	8c 93       	st	X, r24
			timermega328.tc0.reg->tccr0b |= (1 << WGM02);
     d4e:	06 8c       	ldd	r0, Z+30	; 0x1e
     d50:	f7 8d       	ldd	r31, Z+31	; 0x1f
     d52:	e0 2d       	mov	r30, r0
     d54:	80 89       	ldd	r24, Z+16	; 0x10
     d56:	88 60       	ori	r24, 0x08	; 8
     d58:	80 8b       	std	Z+16, r24	; 0x10
		break;
     d5a:	10 c0       	rjmp	.+32     	; 0xd7c <TIMER_COUNTER0enable+0xf8>
		case 7: // Fast PWM
			timermega328.tc0.reg->tccr0a |= (1 << WGM00) | (1 << WGM01);
     d5c:	e8 e3       	ldi	r30, 0x38	; 56
     d5e:	f2 e0       	ldi	r31, 0x02	; 2
     d60:	a6 8d       	ldd	r26, Z+30	; 0x1e
     d62:	b7 8d       	ldd	r27, Z+31	; 0x1f
     d64:	1f 96       	adiw	r26, 0x0f	; 15
     d66:	8c 91       	ld	r24, X
     d68:	1f 97       	sbiw	r26, 0x0f	; 15
     d6a:	83 60       	ori	r24, 0x03	; 3
     d6c:	1f 96       	adiw	r26, 0x0f	; 15
     d6e:	8c 93       	st	X, r24
			timermega328.tc0.reg->tccr0b |= (1 << WGM02);
     d70:	06 8c       	ldd	r0, Z+30	; 0x1e
     d72:	f7 8d       	ldd	r31, Z+31	; 0x1f
     d74:	e0 2d       	mov	r30, r0
     d76:	80 89       	ldd	r24, Z+16	; 0x10
     d78:	88 60       	ori	r24, 0x08	; 8
     d7a:	80 8b       	std	Z+16, r24	; 0x10
		break;
		default:
		break;
	}
	timermega328.tc0.reg->timsk0 &= ~((1 << OCIE0B) | (1 << OCIE0A) | (1 << TOIE0));
     d7c:	a0 91 56 02 	lds	r26, 0x0256	; 0x800256 <timermega328+0x1e>
     d80:	b0 91 57 02 	lds	r27, 0x0257	; 0x800257 <timermega328+0x1f>
     d84:	d9 96       	adiw	r26, 0x39	; 57
     d86:	8c 91       	ld	r24, X
     d88:	d9 97       	sbiw	r26, 0x39	; 57
     d8a:	88 7f       	andi	r24, 0xF8	; 248
	switch(interrupt){
     d8c:	4f 2d       	mov	r20, r15
     d8e:	50 e0       	ldi	r21, 0x00	; 0
     d90:	fa 01       	movw	r30, r20
     d92:	31 97       	sbiw	r30, 0x01	; 1
     d94:	e7 30       	cpi	r30, 0x07	; 7
     d96:	f1 05       	cpc	r31, r1
     d98:	20 f4       	brcc	.+8      	; 0xda2 <TIMER_COUNTER0enable+0x11e>
     d9a:	ec 5c       	subi	r30, 0xCC	; 204
     d9c:	ff 4f       	sbci	r31, 0xFF	; 255
     d9e:	0c 94 16 10 	jmp	0x202c	; 0x202c <__tablejump2__>
			timermega328.tc0.reg->tccr0b |= (1 << WGM02);
		break;
		default:
		break;
	}
	timermega328.tc0.reg->timsk0 &= ~((1 << OCIE0B) | (1 << OCIE0A) | (1 << TOIE0));
     da2:	d9 96       	adiw	r26, 0x39	; 57
     da4:	8c 93       	st	X, r24
     da6:	1b c0       	rjmp	.+54     	; 0xdde <TIMER_COUNTER0enable+0x15a>
	switch(interrupt){
		case 0: 
		break;
		case 1:
			timermega328.tc0.reg->timsk0 |= (1 << TOIE0);
     da8:	81 60       	ori	r24, 0x01	; 1
     daa:	d9 96       	adiw	r26, 0x39	; 57
     dac:	8c 93       	st	X, r24
		break;
     dae:	17 c0       	rjmp	.+46     	; 0xdde <TIMER_COUNTER0enable+0x15a>
		case 2:
			timermega328.tc0.reg->timsk0 |= (1 << OCIE0A);
     db0:	82 60       	ori	r24, 0x02	; 2
     db2:	d9 96       	adiw	r26, 0x39	; 57
     db4:	8c 93       	st	X, r24
		break;
     db6:	13 c0       	rjmp	.+38     	; 0xdde <TIMER_COUNTER0enable+0x15a>
		case 3:
			timermega328.tc0.reg->timsk0 |= (1 << OCIE0B);
     db8:	84 60       	ori	r24, 0x04	; 4
     dba:	d9 96       	adiw	r26, 0x39	; 57
     dbc:	8c 93       	st	X, r24
		break;
     dbe:	0f c0       	rjmp	.+30     	; 0xdde <TIMER_COUNTER0enable+0x15a>
		case 4:
			timermega328.tc0.reg->timsk0 |= (1 << TOIE0) | (1 << OCIE0A);
     dc0:	83 60       	ori	r24, 0x03	; 3
     dc2:	d9 96       	adiw	r26, 0x39	; 57
     dc4:	8c 93       	st	X, r24
		break;
     dc6:	0b c0       	rjmp	.+22     	; 0xdde <TIMER_COUNTER0enable+0x15a>
		case 5:
			timermega328.tc0.reg->timsk0 |= (1 << TOIE0) | (1 << OCIE0B);
     dc8:	85 60       	ori	r24, 0x05	; 5
     dca:	d9 96       	adiw	r26, 0x39	; 57
     dcc:	8c 93       	st	X, r24
		break;
     dce:	07 c0       	rjmp	.+14     	; 0xdde <TIMER_COUNTER0enable+0x15a>
		case 6:
			timermega328.tc0.reg->timsk0 |= (1 << TOIE0) | (1 << OCIE0A) | (1 << OCIE0B);
     dd0:	87 60       	ori	r24, 0x07	; 7
     dd2:	d9 96       	adiw	r26, 0x39	; 57
     dd4:	8c 93       	st	X, r24
		break;
     dd6:	03 c0       	rjmp	.+6      	; 0xdde <TIMER_COUNTER0enable+0x15a>
		case 7:
			timermega328.tc0.reg->timsk0 |= (1 << OCIE0A) | (1 << OCIE0B);
     dd8:	86 60       	ori	r24, 0x06	; 6
     dda:	d9 96       	adiw	r26, 0x39	; 57
     ddc:	8c 93       	st	X, r24
	timer0.compoutmodeB = TIMER_COUNTER0_compoutmodeB;
	timer0.compareA = TIMER_COUNTER0_compareA;
	timer0.compareB = TIMER_COUNTER0_compareB;
	timer0.start = TIMER_COUNTER0_start;
	timer0.stop = TIMER_COUNTER0_stop;
	return timer0;
     dde:	88 e0       	ldi	r24, 0x08	; 8
     de0:	94 e0       	ldi	r25, 0x04	; 4
     de2:	f8 01       	movw	r30, r16
     de4:	91 83       	std	Z+1, r25	; 0x01
     de6:	80 83       	st	Z, r24
     de8:	8d e2       	ldi	r24, 0x2D	; 45
     dea:	94 e0       	ldi	r25, 0x04	; 4
     dec:	93 83       	std	Z+3, r25	; 0x03
     dee:	82 83       	std	Z+2, r24	; 0x02
     df0:	82 e5       	ldi	r24, 0x52	; 82
     df2:	94 e0       	ldi	r25, 0x04	; 4
     df4:	95 83       	std	Z+5, r25	; 0x05
     df6:	84 83       	std	Z+4, r24	; 0x04
     df8:	88 e5       	ldi	r24, 0x58	; 88
     dfa:	94 e0       	ldi	r25, 0x04	; 4
     dfc:	97 83       	std	Z+7, r25	; 0x07
     dfe:	86 83       	std	Z+6, r24	; 0x06
     e00:	82 e9       	ldi	r24, 0x92	; 146
     e02:	93 e0       	ldi	r25, 0x03	; 3
     e04:	91 87       	std	Z+9, r25	; 0x09
     e06:	80 87       	std	Z+8, r24	; 0x08
     e08:	8e e5       	ldi	r24, 0x5E	; 94
     e0a:	94 e0       	ldi	r25, 0x04	; 4
     e0c:	93 87       	std	Z+11, r25	; 0x0b
     e0e:	82 87       	std	Z+10, r24	; 0x0a
}
     e10:	c8 01       	movw	r24, r16
     e12:	ee 96       	adiw	r28, 0x3e	; 62
     e14:	0f b6       	in	r0, 0x3f	; 63
     e16:	f8 94       	cli
     e18:	de bf       	out	0x3e, r29	; 62
     e1a:	0f be       	out	0x3f, r0	; 63
     e1c:	cd bf       	out	0x3d, r28	; 61
     e1e:	df 91       	pop	r29
     e20:	cf 91       	pop	r28
     e22:	1f 91       	pop	r17
     e24:	0f 91       	pop	r16
     e26:	ff 90       	pop	r15
     e28:	ef 90       	pop	r14
     e2a:	08 95       	ret

00000e2c <TIMER_COUNTER1enable>:
//	wavegen mode: Normal; PWM, Phase Correct, 8-bit; PWM, Phase Correct, 9-bit; PWM, Phase Correct, 10-bit;
//	CTC; Fast PWM, 8-bit; Fast PWM, 9-bit; Fast PWM, 10-bit; PWM, Phase and Frequency Correct; PWM, Phase and Frequency Correct;
//	PWM, Phase Correct; PWM, Phase Correct; CTC; (Reserved); Fast PWM; Fast PWM.
//	interrupt: off; overflow; output compare; both; default - non.
//	for more information read data sheet.
{
     e2c:	ef 92       	push	r14
     e2e:	ff 92       	push	r15
     e30:	0f 93       	push	r16
     e32:	1f 93       	push	r17
     e34:	cf 93       	push	r28
     e36:	df 93       	push	r29
     e38:	cd b7       	in	r28, 0x3d	; 61
     e3a:	de b7       	in	r29, 0x3e	; 62
     e3c:	ee 97       	sbiw	r28, 0x3e	; 62
     e3e:	0f b6       	in	r0, 0x3f	; 63
     e40:	f8 94       	cli
     e42:	de bf       	out	0x3e, r29	; 62
     e44:	0f be       	out	0x3f, r0	; 63
     e46:	cd bf       	out	0x3d, r28	; 61
     e48:	7c 01       	movw	r14, r24
     e4a:	06 2f       	mov	r16, r22
     e4c:	14 2f       	mov	r17, r20
	TIMER_COUNTER1 timer1;
	timermega328 = ATMEGA328enable();
     e4e:	ce 01       	movw	r24, r28
     e50:	01 96       	adiw	r24, 0x01	; 1
     e52:	0e 94 17 03 	call	0x62e	; 0x62e <ATMEGA328enable>
     e56:	8e e3       	ldi	r24, 0x3E	; 62
     e58:	fe 01       	movw	r30, r28
     e5a:	31 96       	adiw	r30, 0x01	; 1
     e5c:	a8 e3       	ldi	r26, 0x38	; 56
     e5e:	b2 e0       	ldi	r27, 0x02	; 2
     e60:	01 90       	ld	r0, Z+
     e62:	0d 92       	st	X+, r0
     e64:	8a 95       	dec	r24
     e66:	e1 f7       	brne	.-8      	; 0xe60 <TIMER_COUNTER1enable+0x34>
	
	timer1_state = 0;
     e68:	10 92 7c 01 	sts	0x017C, r1	; 0x80017c <timer1_state>
	timermega328.tc1.reg->tccr1a &= ~((1 << WGM11) | (1 << WGM10));
     e6c:	20 91 52 02 	lds	r18, 0x0252	; 0x800252 <timermega328+0x1a>
     e70:	30 91 53 02 	lds	r19, 0x0253	; 0x800253 <timermega328+0x1b>
     e74:	f9 01       	movw	r30, r18
     e76:	e6 5b       	subi	r30, 0xB6	; 182
     e78:	ff 4f       	sbci	r31, 0xFF	; 255
     e7a:	50 81       	ld	r21, Z
     e7c:	5c 7f       	andi	r21, 0xFC	; 252
     e7e:	50 83       	st	Z, r21
	timermega328.tc1.reg->tccr1b &= ~((1 << WGM13) | (1 << WGM12));
     e80:	31 96       	adiw	r30, 0x01	; 1
     e82:	40 81       	ld	r20, Z
     e84:	47 7e       	andi	r20, 0xE7	; 231
     e86:	40 83       	st	Z, r20
	switch(wavegenmode){
     e88:	80 2f       	mov	r24, r16
     e8a:	90 e0       	ldi	r25, 0x00	; 0
     e8c:	fc 01       	movw	r30, r24
     e8e:	31 97       	sbiw	r30, 0x01	; 1
     e90:	ef 30       	cpi	r30, 0x0F	; 15
     e92:	f1 05       	cpc	r31, r1
     e94:	08 f0       	brcs	.+2      	; 0xe98 <TIMER_COUNTER1enable+0x6c>
     e96:	78 c0       	rjmp	.+240    	; 0xf88 <TIMER_COUNTER1enable+0x15c>
     e98:	e5 5c       	subi	r30, 0xC5	; 197
     e9a:	ff 4f       	sbci	r31, 0xFF	; 255
     e9c:	0c 94 16 10 	jmp	0x202c	; 0x202c <__tablejump2__>
		case 0: // Normal
		break;
		case 1: // PWM, Phase Correct, 8-bit
			timermega328.tc1.reg->tccr1a |= (1 << WGM10);
     ea0:	f9 01       	movw	r30, r18
     ea2:	e6 5b       	subi	r30, 0xB6	; 182
     ea4:	ff 4f       	sbci	r31, 0xFF	; 255
     ea6:	51 60       	ori	r21, 0x01	; 1
     ea8:	50 83       	st	Z, r21
		break;
     eaa:	6e c0       	rjmp	.+220    	; 0xf88 <TIMER_COUNTER1enable+0x15c>
		case 2:	// PWM, Phase Correct, 9-bit
			timermega328.tc1.reg->tccr1a |= (1 << WGM11);
     eac:	f9 01       	movw	r30, r18
     eae:	e6 5b       	subi	r30, 0xB6	; 182
     eb0:	ff 4f       	sbci	r31, 0xFF	; 255
     eb2:	52 60       	ori	r21, 0x02	; 2
     eb4:	50 83       	st	Z, r21
		break;
     eb6:	68 c0       	rjmp	.+208    	; 0xf88 <TIMER_COUNTER1enable+0x15c>
		case 3:	// PWM, Phase Correct, 10-bit
			timermega328.tc1.reg->tccr1a |= (1 << WGM11) | (1 << WGM10);
     eb8:	f9 01       	movw	r30, r18
     eba:	e6 5b       	subi	r30, 0xB6	; 182
     ebc:	ff 4f       	sbci	r31, 0xFF	; 255
     ebe:	53 60       	ori	r21, 0x03	; 3
     ec0:	50 83       	st	Z, r21
		break;
     ec2:	62 c0       	rjmp	.+196    	; 0xf88 <TIMER_COUNTER1enable+0x15c>
		case 4:	// CTC
			timermega328.tc1.reg->tccr1b |= (1 << WGM12);
     ec4:	f9 01       	movw	r30, r18
     ec6:	e5 5b       	subi	r30, 0xB5	; 181
     ec8:	ff 4f       	sbci	r31, 0xFF	; 255
     eca:	48 60       	ori	r20, 0x08	; 8
     ecc:	40 83       	st	Z, r20
		break;
     ece:	5c c0       	rjmp	.+184    	; 0xf88 <TIMER_COUNTER1enable+0x15c>
		case 5:	// Fast PWM, 8-bit
			timermega328.tc1.reg->tccr1a |= (1 << WGM10);
     ed0:	f9 01       	movw	r30, r18
     ed2:	e6 5b       	subi	r30, 0xB6	; 182
     ed4:	ff 4f       	sbci	r31, 0xFF	; 255
     ed6:	51 60       	ori	r21, 0x01	; 1
     ed8:	50 83       	st	Z, r21
			timermega328.tc1.reg->tccr1b |= (1 << WGM12);
     eda:	31 96       	adiw	r30, 0x01	; 1
     edc:	48 60       	ori	r20, 0x08	; 8
     ede:	40 83       	st	Z, r20
		break;
     ee0:	53 c0       	rjmp	.+166    	; 0xf88 <TIMER_COUNTER1enable+0x15c>
		case 6:	// Fast PWM, 9-bit
			timermega328.tc1.reg->tccr1a |= (1 << WGM11);
     ee2:	f9 01       	movw	r30, r18
     ee4:	e6 5b       	subi	r30, 0xB6	; 182
     ee6:	ff 4f       	sbci	r31, 0xFF	; 255
     ee8:	52 60       	ori	r21, 0x02	; 2
     eea:	50 83       	st	Z, r21
			timermega328.tc1.reg->tccr1b |= (1 << WGM12);
     eec:	31 96       	adiw	r30, 0x01	; 1
     eee:	48 60       	ori	r20, 0x08	; 8
     ef0:	40 83       	st	Z, r20
		break;
     ef2:	4a c0       	rjmp	.+148    	; 0xf88 <TIMER_COUNTER1enable+0x15c>
		case 7:	// Fast PWM, 10-bit
			timermega328.tc1.reg->tccr1a |= (1 << WGM11) | (1 << WGM10);
     ef4:	f9 01       	movw	r30, r18
     ef6:	e6 5b       	subi	r30, 0xB6	; 182
     ef8:	ff 4f       	sbci	r31, 0xFF	; 255
     efa:	53 60       	ori	r21, 0x03	; 3
     efc:	50 83       	st	Z, r21
			timermega328.tc1.reg->tccr1b |= (1 << WGM12);
     efe:	31 96       	adiw	r30, 0x01	; 1
     f00:	48 60       	ori	r20, 0x08	; 8
     f02:	40 83       	st	Z, r20
		break;
     f04:	41 c0       	rjmp	.+130    	; 0xf88 <TIMER_COUNTER1enable+0x15c>
		case 8:	// PWM, Phase and Frequency Correct
			timermega328.tc1.reg->tccr1b |= (1 << WGM13);
     f06:	f9 01       	movw	r30, r18
     f08:	e5 5b       	subi	r30, 0xB5	; 181
     f0a:	ff 4f       	sbci	r31, 0xFF	; 255
     f0c:	40 61       	ori	r20, 0x10	; 16
     f0e:	40 83       	st	Z, r20
		break;
     f10:	3b c0       	rjmp	.+118    	; 0xf88 <TIMER_COUNTER1enable+0x15c>
		case 9:	// PWM, Phase and Frequency Correct
			timermega328.tc1.reg->tccr1a |= (1 << WGM10);
     f12:	f9 01       	movw	r30, r18
     f14:	e6 5b       	subi	r30, 0xB6	; 182
     f16:	ff 4f       	sbci	r31, 0xFF	; 255
     f18:	51 60       	ori	r21, 0x01	; 1
     f1a:	50 83       	st	Z, r21
			timermega328.tc1.reg->tccr1b |= (1 << WGM13);
     f1c:	31 96       	adiw	r30, 0x01	; 1
     f1e:	40 61       	ori	r20, 0x10	; 16
     f20:	40 83       	st	Z, r20
		break;
     f22:	32 c0       	rjmp	.+100    	; 0xf88 <TIMER_COUNTER1enable+0x15c>
		case 10: // PWM, Phase Correct
			timermega328.tc1.reg->tccr1a |= (1 << WGM11);
     f24:	f9 01       	movw	r30, r18
     f26:	e6 5b       	subi	r30, 0xB6	; 182
     f28:	ff 4f       	sbci	r31, 0xFF	; 255
     f2a:	52 60       	ori	r21, 0x02	; 2
     f2c:	50 83       	st	Z, r21
			timermega328.tc1.reg->tccr1b |= (1 << WGM13);
     f2e:	31 96       	adiw	r30, 0x01	; 1
     f30:	40 61       	ori	r20, 0x10	; 16
     f32:	40 83       	st	Z, r20
		break;
     f34:	29 c0       	rjmp	.+82     	; 0xf88 <TIMER_COUNTER1enable+0x15c>
		case 11: // PWM, Phase Correct
			timermega328.tc1.reg->tccr1a |= (1 << WGM11) | (1 << WGM10);
     f36:	f9 01       	movw	r30, r18
     f38:	e6 5b       	subi	r30, 0xB6	; 182
     f3a:	ff 4f       	sbci	r31, 0xFF	; 255
     f3c:	53 60       	ori	r21, 0x03	; 3
     f3e:	50 83       	st	Z, r21
			timermega328.tc1.reg->tccr1b |= (1 << WGM13);
     f40:	31 96       	adiw	r30, 0x01	; 1
     f42:	40 61       	ori	r20, 0x10	; 16
     f44:	40 83       	st	Z, r20
		break;
     f46:	20 c0       	rjmp	.+64     	; 0xf88 <TIMER_COUNTER1enable+0x15c>
		case 12: // CTC
			timermega328.tc1.reg->tccr1b |= (1 << WGM13) | (1 << WGM12);
     f48:	f9 01       	movw	r30, r18
     f4a:	e5 5b       	subi	r30, 0xB5	; 181
     f4c:	ff 4f       	sbci	r31, 0xFF	; 255
     f4e:	48 61       	ori	r20, 0x18	; 24
     f50:	40 83       	st	Z, r20
		break;
     f52:	1a c0       	rjmp	.+52     	; 0xf88 <TIMER_COUNTER1enable+0x15c>
		case 13: // (Reserved)
			timermega328.tc1.reg->tccr1a |= (1 << WGM10);
     f54:	f9 01       	movw	r30, r18
     f56:	e6 5b       	subi	r30, 0xB6	; 182
     f58:	ff 4f       	sbci	r31, 0xFF	; 255
     f5a:	51 60       	ori	r21, 0x01	; 1
     f5c:	50 83       	st	Z, r21
			timermega328.tc1.reg->tccr1b |= (1 << WGM13) | (1 << WGM12);
     f5e:	31 96       	adiw	r30, 0x01	; 1
     f60:	48 61       	ori	r20, 0x18	; 24
     f62:	40 83       	st	Z, r20
		break;
     f64:	11 c0       	rjmp	.+34     	; 0xf88 <TIMER_COUNTER1enable+0x15c>
		case 14: // Fast PWM
			timermega328.tc1.reg->tccr1a |= (1 << WGM11);
     f66:	f9 01       	movw	r30, r18
     f68:	e6 5b       	subi	r30, 0xB6	; 182
     f6a:	ff 4f       	sbci	r31, 0xFF	; 255
     f6c:	52 60       	ori	r21, 0x02	; 2
     f6e:	50 83       	st	Z, r21
			timermega328.tc1.reg->tccr1b |= (1 << WGM13) | (1 << WGM12);
     f70:	31 96       	adiw	r30, 0x01	; 1
     f72:	48 61       	ori	r20, 0x18	; 24
     f74:	40 83       	st	Z, r20
		break;
     f76:	08 c0       	rjmp	.+16     	; 0xf88 <TIMER_COUNTER1enable+0x15c>
		case 15: // Fast PWM
			timermega328.tc1.reg->tccr1a |= (1 << WGM11) | (1 << WGM10);
     f78:	f9 01       	movw	r30, r18
     f7a:	e6 5b       	subi	r30, 0xB6	; 182
     f7c:	ff 4f       	sbci	r31, 0xFF	; 255
     f7e:	53 60       	ori	r21, 0x03	; 3
     f80:	50 83       	st	Z, r21
			timermega328.tc1.reg->tccr1b |= (1 << WGM13) | (1 << WGM12);
     f82:	31 96       	adiw	r30, 0x01	; 1
     f84:	48 61       	ori	r20, 0x18	; 24
     f86:	40 83       	st	Z, r20
		break;
		default:
		break;
	}
	timermega328.tc1.reg->tccr1a &= ~((3 << COM1A0) | (3 << COM1B0));
     f88:	f9 01       	movw	r30, r18
     f8a:	e6 5b       	subi	r30, 0xB6	; 182
     f8c:	ff 4f       	sbci	r31, 0xFF	; 255
     f8e:	80 81       	ld	r24, Z
     f90:	8f 70       	andi	r24, 0x0F	; 15
     f92:	80 83       	st	Z, r24
	timermega328.tc1.reg->timsk1 &= ~((1 << ICIE1)  | (1 << OCIE1B) | (1 << OCIE1A) | (1 << TOIE1));
     f94:	f9 01       	movw	r30, r18
     f96:	81 ad       	ldd	r24, Z+57	; 0x39
     f98:	88 7d       	andi	r24, 0xD8	; 216
	switch(interrupt){
     f9a:	41 2f       	mov	r20, r17
     f9c:	50 e0       	ldi	r21, 0x00	; 0
     f9e:	fa 01       	movw	r30, r20
     fa0:	31 97       	sbiw	r30, 0x01	; 1
     fa2:	eb 30       	cpi	r30, 0x0B	; 11
     fa4:	f1 05       	cpc	r31, r1
     fa6:	20 f4       	brcc	.+8      	; 0xfb0 <TIMER_COUNTER1enable+0x184>
     fa8:	e6 5b       	subi	r30, 0xB6	; 182
     faa:	ff 4f       	sbci	r31, 0xFF	; 255
     fac:	0c 94 16 10 	jmp	0x202c	; 0x202c <__tablejump2__>
		break;
		default:
		break;
	}
	timermega328.tc1.reg->tccr1a &= ~((3 << COM1A0) | (3 << COM1B0));
	timermega328.tc1.reg->timsk1 &= ~((1 << ICIE1)  | (1 << OCIE1B) | (1 << OCIE1A) | (1 << TOIE1));
     fb0:	f9 01       	movw	r30, r18
     fb2:	81 af       	std	Z+57, r24	; 0x39
     fb4:	2b c0       	rjmp	.+86     	; 0x100c <TIMER_COUNTER1enable+0x1e0>
	switch(interrupt){
		case 0:
		break;
		case 1:
			timermega328.tc1.reg->timsk1 |= (1 << TOIE1);
     fb6:	81 60       	ori	r24, 0x01	; 1
     fb8:	f9 01       	movw	r30, r18
     fba:	81 af       	std	Z+57, r24	; 0x39
		break;
     fbc:	27 c0       	rjmp	.+78     	; 0x100c <TIMER_COUNTER1enable+0x1e0>
		case 2:
			timermega328.tc1.reg->timsk1 |= (1 << OCIE1A);
     fbe:	82 60       	ori	r24, 0x02	; 2
     fc0:	f9 01       	movw	r30, r18
     fc2:	81 af       	std	Z+57, r24	; 0x39
		break;
     fc4:	23 c0       	rjmp	.+70     	; 0x100c <TIMER_COUNTER1enable+0x1e0>
		case 3:
			timermega328.tc1.reg->timsk1 |= (1 << OCIE1B);
     fc6:	84 60       	ori	r24, 0x04	; 4
     fc8:	f9 01       	movw	r30, r18
     fca:	81 af       	std	Z+57, r24	; 0x39
		break;
     fcc:	1f c0       	rjmp	.+62     	; 0x100c <TIMER_COUNTER1enable+0x1e0>
		case 4:
			timermega328.tc1.reg->timsk1 |= (1 << ICIE1);
     fce:	80 62       	ori	r24, 0x20	; 32
     fd0:	f9 01       	movw	r30, r18
     fd2:	81 af       	std	Z+57, r24	; 0x39
		break;
     fd4:	1b c0       	rjmp	.+54     	; 0x100c <TIMER_COUNTER1enable+0x1e0>
		case 5:
			timermega328.tc1.reg->timsk1 |= (1 << OCIE1A) | (1 << OCIE1B);
     fd6:	86 60       	ori	r24, 0x06	; 6
     fd8:	f9 01       	movw	r30, r18
     fda:	81 af       	std	Z+57, r24	; 0x39
		break;
     fdc:	17 c0       	rjmp	.+46     	; 0x100c <TIMER_COUNTER1enable+0x1e0>
		case 6:
			timermega328.tc1.reg->timsk1 |= (1 << OCIE1A) | (1 << TOIE1);
     fde:	83 60       	ori	r24, 0x03	; 3
     fe0:	f9 01       	movw	r30, r18
     fe2:	81 af       	std	Z+57, r24	; 0x39
		break;
     fe4:	13 c0       	rjmp	.+38     	; 0x100c <TIMER_COUNTER1enable+0x1e0>
		case 7:
			timermega328.tc1.reg->timsk1 |= (1 << OCIE1B) | (1 << TOIE1);
     fe6:	85 60       	ori	r24, 0x05	; 5
     fe8:	f9 01       	movw	r30, r18
     fea:	81 af       	std	Z+57, r24	; 0x39
		break;
     fec:	0f c0       	rjmp	.+30     	; 0x100c <TIMER_COUNTER1enable+0x1e0>
		case 8:
			timermega328.tc1.reg->timsk1 |= (1 << ICIE1) | (1 << TOIE1);
     fee:	81 62       	ori	r24, 0x21	; 33
     ff0:	f9 01       	movw	r30, r18
     ff2:	81 af       	std	Z+57, r24	; 0x39
		break;
     ff4:	0b c0       	rjmp	.+22     	; 0x100c <TIMER_COUNTER1enable+0x1e0>
		case 9:
			timermega328.tc1.reg->timsk1 |= (1 << OCIE1A) | (1 << OCIE1B) | (1 << TOIE1);
     ff6:	87 60       	ori	r24, 0x07	; 7
     ff8:	f9 01       	movw	r30, r18
     ffa:	81 af       	std	Z+57, r24	; 0x39
		break;
     ffc:	07 c0       	rjmp	.+14     	; 0x100c <TIMER_COUNTER1enable+0x1e0>
		case 10:
			timermega328.tc1.reg->timsk1 |= (1 << ICIE1) | (1 << OCIE1A) | (1 << OCIE1B) | (1 << TOIE1);
     ffe:	87 62       	ori	r24, 0x27	; 39
    1000:	f9 01       	movw	r30, r18
    1002:	81 af       	std	Z+57, r24	; 0x39
		break;
    1004:	03 c0       	rjmp	.+6      	; 0x100c <TIMER_COUNTER1enable+0x1e0>
		case 11:
			timermega328.tc1.reg->timsk1 |= (1 << OCIE1A) | (1 << OCIE1B);
    1006:	86 60       	ori	r24, 0x06	; 6
    1008:	f9 01       	movw	r30, r18
    100a:	81 af       	std	Z+57, r24	; 0x39
	timer1.compoutmodeB = TIMER_COUNTER1_compoutmodeB;
	timer1.compareA = TIMER_COUNTER1_compareA;
	timer1.compareB = TIMER_COUNTER1_compareB;
	timer1.start = TIMER_COUNTER1_start;
	timer1.stop = TIMER_COUNTER1_stop;
	return timer1;
    100c:	83 ef       	ldi	r24, 0xF3	; 243
    100e:	94 e0       	ldi	r25, 0x04	; 4
    1010:	f7 01       	movw	r30, r14
    1012:	91 83       	std	Z+1, r25	; 0x01
    1014:	80 83       	st	Z, r24
    1016:	86 e1       	ldi	r24, 0x16	; 22
    1018:	95 e0       	ldi	r25, 0x05	; 5
    101a:	93 83       	std	Z+3, r25	; 0x03
    101c:	82 83       	std	Z+2, r24	; 0x02
    101e:	89 e3       	ldi	r24, 0x39	; 57
    1020:	95 e0       	ldi	r25, 0x05	; 5
    1022:	95 83       	std	Z+5, r25	; 0x05
    1024:	84 83       	std	Z+4, r24	; 0x04
    1026:	8a e4       	ldi	r24, 0x4A	; 74
    1028:	95 e0       	ldi	r25, 0x05	; 5
    102a:	97 83       	std	Z+7, r25	; 0x07
    102c:	86 83       	std	Z+6, r24	; 0x06
    102e:	8f e6       	ldi	r24, 0x6F	; 111
    1030:	94 e0       	ldi	r25, 0x04	; 4
    1032:	91 87       	std	Z+9, r25	; 0x09
    1034:	80 87       	std	Z+8, r24	; 0x08
    1036:	8b e5       	ldi	r24, 0x5B	; 91
    1038:	95 e0       	ldi	r25, 0x05	; 5
    103a:	93 87       	std	Z+11, r25	; 0x0b
    103c:	82 87       	std	Z+10, r24	; 0x0a
}
    103e:	c7 01       	movw	r24, r14
    1040:	ee 96       	adiw	r28, 0x3e	; 62
    1042:	0f b6       	in	r0, 0x3f	; 63
    1044:	f8 94       	cli
    1046:	de bf       	out	0x3e, r29	; 62
    1048:	0f be       	out	0x3f, r0	; 63
    104a:	cd bf       	out	0x3d, r28	; 61
    104c:	df 91       	pop	r29
    104e:	cf 91       	pop	r28
    1050:	1f 91       	pop	r17
    1052:	0f 91       	pop	r16
    1054:	ff 90       	pop	r15
    1056:	ef 90       	pop	r14
    1058:	08 95       	ret

0000105a <TIMER_COUNTER2enable>:

TIMER_COUNTER2 TIMER_COUNTER2enable(unsigned char wavegenmode, unsigned char interrupt)
//	PARAMETER SETTING
//	wavegen mode: Normal; PWM phase correct; Fast PWM; default-Normasl;
//	interrupt: off; overflow; output compare; both; default - non.
{
    105a:	ef 92       	push	r14
    105c:	ff 92       	push	r15
    105e:	0f 93       	push	r16
    1060:	1f 93       	push	r17
    1062:	cf 93       	push	r28
    1064:	df 93       	push	r29
    1066:	cd b7       	in	r28, 0x3d	; 61
    1068:	de b7       	in	r29, 0x3e	; 62
    106a:	ee 97       	sbiw	r28, 0x3e	; 62
    106c:	0f b6       	in	r0, 0x3f	; 63
    106e:	f8 94       	cli
    1070:	de bf       	out	0x3e, r29	; 62
    1072:	0f be       	out	0x3f, r0	; 63
    1074:	cd bf       	out	0x3d, r28	; 61
    1076:	8c 01       	movw	r16, r24
    1078:	e6 2e       	mov	r14, r22
    107a:	f4 2e       	mov	r15, r20
	TIMER_COUNTER2 timer2;
	timermega328 = ATMEGA328enable();
    107c:	ce 01       	movw	r24, r28
    107e:	01 96       	adiw	r24, 0x01	; 1
    1080:	0e 94 17 03 	call	0x62e	; 0x62e <ATMEGA328enable>
    1084:	8e e3       	ldi	r24, 0x3E	; 62
    1086:	fe 01       	movw	r30, r28
    1088:	31 96       	adiw	r30, 0x01	; 1
    108a:	a8 e3       	ldi	r26, 0x38	; 56
    108c:	b2 e0       	ldi	r27, 0x02	; 2
    108e:	01 90       	ld	r0, Z+
    1090:	0d 92       	st	X+, r0
    1092:	8a 95       	dec	r24
    1094:	e1 f7       	brne	.-8      	; 0x108e <TIMER_COUNTER2enable+0x34>
	
	timer2_state = 0;
    1096:	10 92 7b 01 	sts	0x017B, r1	; 0x80017b <timer2_state>
	timermega328.tc2.reg->tccr2a &= ~((1 << WGM21) | (1 << WGM20));
    109a:	e0 91 5a 02 	lds	r30, 0x025A	; 0x80025a <timermega328+0x22>
    109e:	f0 91 5b 02 	lds	r31, 0x025B	; 0x80025b <timermega328+0x23>
    10a2:	df 01       	movw	r26, r30
    10a4:	a7 58       	subi	r26, 0x87	; 135
    10a6:	bf 4f       	sbci	r27, 0xFF	; 255
    10a8:	8c 91       	ld	r24, X
    10aa:	8c 7f       	andi	r24, 0xFC	; 252
    10ac:	8c 93       	st	X, r24
	timermega328.tc2.reg->tccr2b &= ~(1<<WGM22);
    10ae:	11 96       	adiw	r26, 0x01	; 1
    10b0:	9c 91       	ld	r25, X
    10b2:	97 7f       	andi	r25, 0xF7	; 247
    10b4:	9c 93       	st	X, r25
	switch(wavegenmode){
    10b6:	23 e0       	ldi	r18, 0x03	; 3
    10b8:	e2 16       	cp	r14, r18
    10ba:	e1 f0       	breq	.+56     	; 0x10f4 <TIMER_COUNTER2enable+0x9a>
    10bc:	2e 15       	cp	r18, r14
    10be:	38 f0       	brcs	.+14     	; 0x10ce <TIMER_COUNTER2enable+0x74>
    10c0:	91 e0       	ldi	r25, 0x01	; 1
    10c2:	e9 16       	cp	r14, r25
    10c4:	59 f0       	breq	.+22     	; 0x10dc <TIMER_COUNTER2enable+0x82>
    10c6:	22 e0       	ldi	r18, 0x02	; 2
    10c8:	e2 16       	cp	r14, r18
    10ca:	71 f0       	breq	.+28     	; 0x10e8 <TIMER_COUNTER2enable+0x8e>
    10cc:	2a c0       	rjmp	.+84     	; 0x1122 <TIMER_COUNTER2enable+0xc8>
    10ce:	25 e0       	ldi	r18, 0x05	; 5
    10d0:	e2 16       	cp	r14, r18
    10d2:	b1 f0       	breq	.+44     	; 0x1100 <TIMER_COUNTER2enable+0xa6>
    10d4:	27 e0       	ldi	r18, 0x07	; 7
    10d6:	e2 16       	cp	r14, r18
    10d8:	e1 f0       	breq	.+56     	; 0x1112 <TIMER_COUNTER2enable+0xb8>
    10da:	23 c0       	rjmp	.+70     	; 0x1122 <TIMER_COUNTER2enable+0xc8>
		case 0: // Normal
		break;
		case 1: // PWM, Phase Correct
			timermega328.tc2.reg->tccr2a |=(1 << WGM20);
    10dc:	df 01       	movw	r26, r30
    10de:	a7 58       	subi	r26, 0x87	; 135
    10e0:	bf 4f       	sbci	r27, 0xFF	; 255
    10e2:	81 60       	ori	r24, 0x01	; 1
    10e4:	8c 93       	st	X, r24
		break;
    10e6:	1d c0       	rjmp	.+58     	; 0x1122 <TIMER_COUNTER2enable+0xc8>
		case 2: // CTC
			timermega328.tc2.reg->tccr2a |= (1 << WGM21);
    10e8:	df 01       	movw	r26, r30
    10ea:	a7 58       	subi	r26, 0x87	; 135
    10ec:	bf 4f       	sbci	r27, 0xFF	; 255
    10ee:	82 60       	ori	r24, 0x02	; 2
    10f0:	8c 93       	st	X, r24
		break;
    10f2:	17 c0       	rjmp	.+46     	; 0x1122 <TIMER_COUNTER2enable+0xc8>
		case 3: // Fast PWM
			timermega328.tc2.reg->tccr2a |= (1 << WGM20) | (1 << WGM21);
    10f4:	df 01       	movw	r26, r30
    10f6:	a7 58       	subi	r26, 0x87	; 135
    10f8:	bf 4f       	sbci	r27, 0xFF	; 255
    10fa:	83 60       	ori	r24, 0x03	; 3
    10fc:	8c 93       	st	X, r24
		break;
    10fe:	11 c0       	rjmp	.+34     	; 0x1122 <TIMER_COUNTER2enable+0xc8>
		case 5: // PWM, Phase Correct
			timermega328.tc2.reg->tccr2a |= (1 << WGM20);
    1100:	df 01       	movw	r26, r30
    1102:	a7 58       	subi	r26, 0x87	; 135
    1104:	bf 4f       	sbci	r27, 0xFF	; 255
    1106:	81 60       	ori	r24, 0x01	; 1
    1108:	8c 93       	st	X, r24
			timermega328.tc2.reg->tccr2b |= (1 << WGM22);
    110a:	11 96       	adiw	r26, 0x01	; 1
    110c:	98 60       	ori	r25, 0x08	; 8
    110e:	9c 93       	st	X, r25
		break;
    1110:	08 c0       	rjmp	.+16     	; 0x1122 <TIMER_COUNTER2enable+0xc8>
		case 7: // Fast PWM
			timermega328.tc2.reg->tccr2a |= (1 << WGM20) | (1 << WGM21);
    1112:	df 01       	movw	r26, r30
    1114:	a7 58       	subi	r26, 0x87	; 135
    1116:	bf 4f       	sbci	r27, 0xFF	; 255
    1118:	83 60       	ori	r24, 0x03	; 3
    111a:	8c 93       	st	X, r24
			timermega328.tc2.reg->tccr2b |= (1 << WGM22);
    111c:	11 96       	adiw	r26, 0x01	; 1
    111e:	98 60       	ori	r25, 0x08	; 8
    1120:	9c 93       	st	X, r25
		break;
		default:
		break;
	}
	timermega328.tc2.reg->timsk2 &= ~((1 << OCIE2B) | (1 << OCIE2A) | (1 << TOIE2));
    1122:	81 ad       	ldd	r24, Z+57	; 0x39
    1124:	88 7f       	andi	r24, 0xF8	; 248
	switch(interrupt){
    1126:	93 e0       	ldi	r25, 0x03	; 3
    1128:	f9 16       	cp	r15, r25
    112a:	c9 f0       	breq	.+50     	; 0x115e <TIMER_COUNTER2enable+0x104>
    112c:	9f 15       	cp	r25, r15
    112e:	38 f0       	brcs	.+14     	; 0x113e <TIMER_COUNTER2enable+0xe4>
    1130:	21 e0       	ldi	r18, 0x01	; 1
    1132:	f2 16       	cp	r15, r18
    1134:	71 f0       	breq	.+28     	; 0x1152 <TIMER_COUNTER2enable+0xf8>
    1136:	92 e0       	ldi	r25, 0x02	; 2
    1138:	f9 16       	cp	r15, r25
    113a:	71 f0       	breq	.+28     	; 0x1158 <TIMER_COUNTER2enable+0xfe>
    113c:	08 c0       	rjmp	.+16     	; 0x114e <TIMER_COUNTER2enable+0xf4>
    113e:	25 e0       	ldi	r18, 0x05	; 5
    1140:	f2 16       	cp	r15, r18
    1142:	99 f0       	breq	.+38     	; 0x116a <TIMER_COUNTER2enable+0x110>
    1144:	f2 16       	cp	r15, r18
    1146:	70 f0       	brcs	.+28     	; 0x1164 <TIMER_COUNTER2enable+0x10a>
    1148:	96 e0       	ldi	r25, 0x06	; 6
    114a:	f9 16       	cp	r15, r25
    114c:	89 f0       	breq	.+34     	; 0x1170 <TIMER_COUNTER2enable+0x116>
			timermega328.tc2.reg->tccr2b |= (1 << WGM22);
		break;
		default:
		break;
	}
	timermega328.tc2.reg->timsk2 &= ~((1 << OCIE2B) | (1 << OCIE2A) | (1 << TOIE2));
    114e:	81 af       	std	Z+57, r24	; 0x39
    1150:	11 c0       	rjmp	.+34     	; 0x1174 <TIMER_COUNTER2enable+0x11a>
	switch(interrupt){
		case 0: 
		break;
		case 1:
			timermega328.tc2.reg->timsk2 |= (1 << TOIE2);
    1152:	81 60       	ori	r24, 0x01	; 1
    1154:	81 af       	std	Z+57, r24	; 0x39
		break;
    1156:	0e c0       	rjmp	.+28     	; 0x1174 <TIMER_COUNTER2enable+0x11a>
		case 2:
			timermega328.tc2.reg->timsk2 |= (1 << OCIE2A);
    1158:	82 60       	ori	r24, 0x02	; 2
    115a:	81 af       	std	Z+57, r24	; 0x39
		break;
    115c:	0b c0       	rjmp	.+22     	; 0x1174 <TIMER_COUNTER2enable+0x11a>
		case 3:
			timermega328.tc2.reg->timsk2 |= (1 << TOIE2) | (1 << OCIE2A);
    115e:	83 60       	ori	r24, 0x03	; 3
    1160:	81 af       	std	Z+57, r24	; 0x39
		break;
    1162:	08 c0       	rjmp	.+16     	; 0x1174 <TIMER_COUNTER2enable+0x11a>
		case 4:
			timermega328.tc2.reg->timsk2 |= (1 << TOIE2) | (1 << OCIE2B);
    1164:	85 60       	ori	r24, 0x05	; 5
    1166:	81 af       	std	Z+57, r24	; 0x39
		break;
    1168:	05 c0       	rjmp	.+10     	; 0x1174 <TIMER_COUNTER2enable+0x11a>
		case 5:
			timermega328.tc2.reg->timsk2 |= (1 << OCIE2B) | (1 << OCIE2A);
    116a:	86 60       	ori	r24, 0x06	; 6
    116c:	81 af       	std	Z+57, r24	; 0x39
		break;
    116e:	02 c0       	rjmp	.+4      	; 0x1174 <TIMER_COUNTER2enable+0x11a>
		case 6:
			timermega328.tc2.reg->timsk2 |= (1 << OCIE2B) | (1 << OCIE2A) | (1 << TOIE2);
    1170:	87 60       	ori	r24, 0x07	; 7
    1172:	81 af       	std	Z+57, r24	; 0x39
	timer2.compoutmodeB = TIMER_COUNTER2_compoutmodeB;
	timer2.compareA = TIMER_COUNTER2_compareA;
	timer2.compareB = TIMER_COUNTER2_compareB;
	timer2.start = TIMER_COUNTER2_start;
	timer2.stop = TIMER_COUNTER2_stop;
	return timer2;
    1174:	8d ed       	ldi	r24, 0xDD	; 221
    1176:	95 e0       	ldi	r25, 0x05	; 5
    1178:	f8 01       	movw	r30, r16
    117a:	91 83       	std	Z+1, r25	; 0x01
    117c:	80 83       	st	Z, r24
    117e:	80 e0       	ldi	r24, 0x00	; 0
    1180:	96 e0       	ldi	r25, 0x06	; 6
    1182:	93 83       	std	Z+3, r25	; 0x03
    1184:	82 83       	std	Z+2, r24	; 0x02
    1186:	83 e2       	ldi	r24, 0x23	; 35
    1188:	96 e0       	ldi	r25, 0x06	; 6
    118a:	95 83       	std	Z+5, r25	; 0x05
    118c:	84 83       	std	Z+4, r24	; 0x04
    118e:	8b e2       	ldi	r24, 0x2B	; 43
    1190:	96 e0       	ldi	r25, 0x06	; 6
    1192:	97 83       	std	Z+7, r25	; 0x07
    1194:	86 83       	std	Z+6, r24	; 0x06
    1196:	87 e7       	ldi	r24, 0x77	; 119
    1198:	95 e0       	ldi	r25, 0x05	; 5
    119a:	91 87       	std	Z+9, r25	; 0x09
    119c:	80 87       	std	Z+8, r24	; 0x08
    119e:	83 e3       	ldi	r24, 0x33	; 51
    11a0:	96 e0       	ldi	r25, 0x06	; 6
    11a2:	93 87       	std	Z+11, r25	; 0x0b
    11a4:	82 87       	std	Z+10, r24	; 0x0a
}
    11a6:	c8 01       	movw	r24, r16
    11a8:	ee 96       	adiw	r28, 0x3e	; 62
    11aa:	0f b6       	in	r0, 0x3f	; 63
    11ac:	f8 94       	cli
    11ae:	de bf       	out	0x3e, r29	; 62
    11b0:	0f be       	out	0x3f, r0	; 63
    11b2:	cd bf       	out	0x3d, r28	; 61
    11b4:	df 91       	pop	r29
    11b6:	cf 91       	pop	r28
    11b8:	1f 91       	pop	r17
    11ba:	0f 91       	pop	r16
    11bc:	ff 90       	pop	r15
    11be:	ef 90       	pop	r14
    11c0:	08 95       	ret

000011c2 <TWI_status>:
	_delay_us(100); //wait for a short time
}
// auxiliary
uint8_t TWI_status( void )
{
	uint8_t cmd = twimega328.twi.reg->twsr & TWI_STATUS_MASK;
    11c2:	e0 91 9c 02 	lds	r30, 0x029C	; 0x80029c <twimega328+0x26>
    11c6:	f0 91 9d 02 	lds	r31, 0x029D	; 0x80029d <twimega328+0x27>
	return cmd;
    11ca:	81 81       	ldd	r24, Z+1	; 0x01
}
    11cc:	88 7f       	andi	r24, 0xF8	; 248
    11ce:	08 95       	ret

000011d0 <TWI_stop>:
}
// void TWI_stop(void)
void TWI_stop(void)
{
	uint8_t cmd = (1 << TWINT) | (1 << TWEN) | (1 << TWSTO);
	twimega328.twi.reg->twcr = cmd;
    11d0:	e0 91 9c 02 	lds	r30, 0x029C	; 0x80029c <twimega328+0x26>
    11d4:	f0 91 9d 02 	lds	r31, 0x029D	; 0x80029d <twimega328+0x27>
    11d8:	84 e9       	ldi	r24, 0x94	; 148
    11da:	84 83       	std	Z+4, r24	; 0x04
	#else
		//round up by default
		__ticks_dc = (uint32_t)(ceil(fabs(__tmp)));
	#endif

	__builtin_avr_delay_cycles(__ticks_dc);
    11dc:	81 e2       	ldi	r24, 0x21	; 33
    11de:	8a 95       	dec	r24
    11e0:	f1 f7       	brne	.-4      	; 0x11de <TWI_stop+0xe>
    11e2:	00 00       	nop
    11e4:	08 95       	ret

000011e6 <TWI_init>:
	
	return ic;
}
// void TWI_Init(uint8_t device_id, uint8_t prescaler)
void TWI_init(uint8_t device_id, uint8_t prescaler)
{
    11e6:	cf 93       	push	r28
    11e8:	df 93       	push	r29
	uint8_t cmd = 0x00;
	if(device_id > 0 && device_id < 128)
    11ea:	18 16       	cp	r1, r24
    11ec:	1c f4       	brge	.+6      	; 0x11f4 <TWI_init+0xe>
		cmd = (device_id << 1) | (1 << TWGCE);
    11ee:	88 0f       	add	r24, r24
    11f0:	81 60       	ori	r24, 0x01	; 1
    11f2:	01 c0       	rjmp	.+2      	; 0x11f6 <TWI_init+0x10>
	else
		cmd = (1 << TWGCE); // no address, but accept general call
    11f4:	81 e0       	ldi	r24, 0x01	; 1
	twimega328.twi.reg->twar = cmd;
    11f6:	e6 e7       	ldi	r30, 0x76	; 118
    11f8:	f2 e0       	ldi	r31, 0x02	; 2
    11fa:	a6 a1       	ldd	r26, Z+38	; 0x26
    11fc:	b7 a1       	ldd	r27, Z+39	; 0x27
    11fe:	12 96       	adiw	r26, 0x02	; 2
    1200:	8c 93       	st	X, r24
	twimega328.portd.reg->ddr |= TWI_IO_MASK;
    1202:	a6 89       	ldd	r26, Z+22	; 0x16
    1204:	b7 89       	ldd	r27, Z+23	; 0x17
    1206:	11 96       	adiw	r26, 0x01	; 1
    1208:	8c 91       	ld	r24, X
    120a:	11 97       	sbiw	r26, 0x01	; 1
    120c:	80 63       	ori	r24, 0x30	; 48
    120e:	11 96       	adiw	r26, 0x01	; 1
    1210:	8c 93       	st	X, r24
	twimega328.portd.reg->port |= TWI_IO_MASK;
    1212:	06 88       	ldd	r0, Z+22	; 0x16
    1214:	f7 89       	ldd	r31, Z+23	; 0x17
    1216:	e0 2d       	mov	r30, r0
    1218:	82 81       	ldd	r24, Z+2	; 0x02
    121a:	80 63       	ori	r24, 0x30	; 48
    121c:	82 83       	std	Z+2, r24	; 0x02
	switch(prescaler){
    121e:	64 30       	cpi	r22, 0x04	; 4
    1220:	89 f0       	breq	.+34     	; 0x1244 <TWI_init+0x5e>
    1222:	18 f4       	brcc	.+6      	; 0x122a <TWI_init+0x44>
    1224:	61 30       	cpi	r22, 0x01	; 1
    1226:	31 f0       	breq	.+12     	; 0x1234 <TWI_init+0x4e>
    1228:	25 c0       	rjmp	.+74     	; 0x1274 <TWI_init+0x8e>
    122a:	60 31       	cpi	r22, 0x10	; 16
    122c:	99 f0       	breq	.+38     	; 0x1254 <TWI_init+0x6e>
    122e:	60 34       	cpi	r22, 0x40	; 64
    1230:	c9 f0       	breq	.+50     	; 0x1264 <TWI_init+0x7e>
    1232:	20 c0       	rjmp	.+64     	; 0x1274 <TWI_init+0x8e>
		case 1:
			twimega328.twi.reg->twsr &= ~TWI_PRESCALER_MASK;
    1234:	e0 91 9c 02 	lds	r30, 0x029C	; 0x80029c <twimega328+0x26>
    1238:	f0 91 9d 02 	lds	r31, 0x029D	; 0x80029d <twimega328+0x27>
    123c:	81 81       	ldd	r24, Z+1	; 0x01
    123e:	8c 7f       	andi	r24, 0xFC	; 252
    1240:	81 83       	std	Z+1, r24	; 0x01
		break;
    1242:	20 c0       	rjmp	.+64     	; 0x1284 <TWI_init+0x9e>
		case 4:
			twimega328.twi.reg->twsr |= (1 << TWPS0);
    1244:	e0 91 9c 02 	lds	r30, 0x029C	; 0x80029c <twimega328+0x26>
    1248:	f0 91 9d 02 	lds	r31, 0x029D	; 0x80029d <twimega328+0x27>
    124c:	81 81       	ldd	r24, Z+1	; 0x01
    124e:	81 60       	ori	r24, 0x01	; 1
    1250:	81 83       	std	Z+1, r24	; 0x01
		break;
    1252:	18 c0       	rjmp	.+48     	; 0x1284 <TWI_init+0x9e>
		case 16:
			twimega328.twi.reg->twsr |= (2 << TWPS0);
    1254:	e0 91 9c 02 	lds	r30, 0x029C	; 0x80029c <twimega328+0x26>
    1258:	f0 91 9d 02 	lds	r31, 0x029D	; 0x80029d <twimega328+0x27>
    125c:	81 81       	ldd	r24, Z+1	; 0x01
    125e:	82 60       	ori	r24, 0x02	; 2
    1260:	81 83       	std	Z+1, r24	; 0x01
		break;
    1262:	10 c0       	rjmp	.+32     	; 0x1284 <TWI_init+0x9e>
		case 64:
			twimega328.twi.reg->twsr |= (3 << TWPS0);
    1264:	e0 91 9c 02 	lds	r30, 0x029C	; 0x80029c <twimega328+0x26>
    1268:	f0 91 9d 02 	lds	r31, 0x029D	; 0x80029d <twimega328+0x27>
    126c:	81 81       	ldd	r24, Z+1	; 0x01
    126e:	83 60       	ori	r24, 0x03	; 3
    1270:	81 83       	std	Z+1, r24	; 0x01
		break;
    1272:	08 c0       	rjmp	.+16     	; 0x1284 <TWI_init+0x9e>
		default:
			prescaler = 1;
			twimega328.twi.reg->twsr &= ~TWI_PRESCALER_MASK;
    1274:	e0 91 9c 02 	lds	r30, 0x029C	; 0x80029c <twimega328+0x26>
    1278:	f0 91 9d 02 	lds	r31, 0x029D	; 0x80029d <twimega328+0x27>
    127c:	81 81       	ldd	r24, Z+1	; 0x01
    127e:	8c 7f       	andi	r24, 0xFC	; 252
    1280:	81 83       	std	Z+1, r24	; 0x01
		break;
		case 64:
			twimega328.twi.reg->twsr |= (3 << TWPS0);
		break;
		default:
			prescaler = 1;
    1282:	61 e0       	ldi	r22, 0x01	; 1
			twimega328.twi.reg->twsr &= ~TWI_PRESCALER_MASK;
		break;
	}
	twimega328.twi.reg->twbr = ((F_CPU / TWI_SCL_CLOCK) - 16) / (2 * prescaler);
    1284:	c0 91 9c 02 	lds	r28, 0x029C	; 0x80029c <twimega328+0x26>
    1288:	d0 91 9d 02 	lds	r29, 0x029D	; 0x80029d <twimega328+0x27>
    128c:	26 2f       	mov	r18, r22
    128e:	30 e0       	ldi	r19, 0x00	; 0
    1290:	22 0f       	add	r18, r18
    1292:	33 1f       	adc	r19, r19
    1294:	03 2e       	mov	r0, r19
    1296:	00 0c       	add	r0, r0
    1298:	44 0b       	sbc	r20, r20
    129a:	55 0b       	sbc	r21, r21
    129c:	6a ef       	ldi	r22, 0xFA	; 250
    129e:	7f ef       	ldi	r23, 0xFF	; 255
    12a0:	8f ef       	ldi	r24, 0xFF	; 255
    12a2:	9f ef       	ldi	r25, 0xFF	; 255
    12a4:	0e 94 f4 0f 	call	0x1fe8	; 0x1fe8 <__udivmodsi4>
    12a8:	28 83       	st	Y, r18
	// Standard Config begin
	//twimega328.twi->twsr = 0x00; //set presca1er bits to zero
	//twimega328.twi->twbr = 0x46; //SCL frequency is 50K for 16Mhz
	//twimega328.twi->twcr = 0x04; //enab1e TWI module
	// Standard Config end
}
    12aa:	df 91       	pop	r29
    12ac:	cf 91       	pop	r28
    12ae:	08 95       	ret

000012b0 <TWIenable>:
void TWI_wait_twint( uint16_t nticks );

/*** Procedure and Function ***/
// TWI TWIenable(uint8_t atmega_ID,  uint8_t prescaler)
TWI TWIenable(uint8_t atmega_ID,  uint8_t prescaler)
{
    12b0:	bf 92       	push	r11
    12b2:	cf 92       	push	r12
    12b4:	df 92       	push	r13
    12b6:	ef 92       	push	r14
    12b8:	ff 92       	push	r15
    12ba:	0f 93       	push	r16
    12bc:	1f 93       	push	r17
    12be:	cf 93       	push	r28
    12c0:	df 93       	push	r29
    12c2:	cd b7       	in	r28, 0x3d	; 61
    12c4:	de b7       	in	r29, 0x3e	; 62
    12c6:	ee 97       	sbiw	r28, 0x3e	; 62
    12c8:	0f b6       	in	r0, 0x3f	; 63
    12ca:	f8 94       	cli
    12cc:	de bf       	out	0x3e, r29	; 62
    12ce:	0f be       	out	0x3f, r0	; 63
    12d0:	cd bf       	out	0x3d, r28	; 61
    12d2:	8c 01       	movw	r16, r24
    12d4:	e6 2e       	mov	r14, r22
    12d6:	b4 2e       	mov	r11, r20
	//local var
	uint8_t tSREG;
	TWI ic;
	//inic file var
	twimega328 = ATMEGA328enable();
    12d8:	ce 01       	movw	r24, r28
    12da:	01 96       	adiw	r24, 0x01	; 1
    12dc:	0e 94 17 03 	call	0x62e	; 0x62e <ATMEGA328enable>
    12e0:	8e e3       	ldi	r24, 0x3E	; 62
    12e2:	fe 01       	movw	r30, r28
    12e4:	31 96       	adiw	r30, 0x01	; 1
    12e6:	a6 e7       	ldi	r26, 0x76	; 118
    12e8:	b2 e0       	ldi	r27, 0x02	; 2
    12ea:	01 90       	ld	r0, Z+
    12ec:	0d 92       	st	X+, r0
    12ee:	8a 95       	dec	r24
    12f0:	e1 f7       	brne	.-8      	; 0x12ea <TWIenable+0x3a>
	//inic local var
	tSREG = twimega328.cpu.reg->sreg;
    12f2:	0f 2e       	mov	r0, r31
    12f4:	f6 e7       	ldi	r31, 0x76	; 118
    12f6:	cf 2e       	mov	r12, r31
    12f8:	f2 e0       	ldi	r31, 0x02	; 2
    12fa:	df 2e       	mov	r13, r31
    12fc:	f0 2d       	mov	r31, r0
    12fe:	d6 01       	movw	r26, r12
    1300:	18 96       	adiw	r26, 0x08	; 8
    1302:	ed 91       	ld	r30, X+
    1304:	fc 91       	ld	r31, X
    1306:	19 97       	sbiw	r26, 0x09	; 9
    1308:	f1 a0       	ldd	r15, Z+33	; 0x21
	twimega328.cpu.reg->sreg &= ~(1<<GLOBAL_INTERRUPT_ENABLE);
    130a:	8f 2d       	mov	r24, r15
    130c:	8f 77       	andi	r24, 0x7F	; 127
    130e:	81 a3       	std	Z+33, r24	; 0x21
	ic.stop = TWI_stop;
	ic.master_write = TWI_master_write;
	ic.master_read = TWI_master_read;
	ic.status = TWI_status;
	
	TWI_init(atmega_ID, prescaler);
    1310:	6b 2d       	mov	r22, r11
    1312:	8e 2d       	mov	r24, r14
    1314:	0e 94 f3 08 	call	0x11e6	; 0x11e6 <TWI_init>
	twimega328.cpu.reg->sreg = tSREG;
    1318:	d6 01       	movw	r26, r12
    131a:	18 96       	adiw	r26, 0x08	; 8
    131c:	ed 91       	ld	r30, X+
    131e:	fc 91       	ld	r31, X
    1320:	19 97       	sbiw	r26, 0x09	; 9
    1322:	f1 a2       	std	Z+33, r15	; 0x21
	
	return ic;
    1324:	8c ec       	ldi	r24, 0xCC	; 204
    1326:	99 e0       	ldi	r25, 0x09	; 9
    1328:	f8 01       	movw	r30, r16
    132a:	91 83       	std	Z+1, r25	; 0x01
    132c:	80 83       	st	Z, r24
    132e:	8d ed       	ldi	r24, 0xDD	; 221
    1330:	99 e0       	ldi	r25, 0x09	; 9
    1332:	93 83       	std	Z+3, r25	; 0x03
    1334:	82 83       	std	Z+2, r24	; 0x02
    1336:	8b ef       	ldi	r24, 0xFB	; 251
    1338:	99 e0       	ldi	r25, 0x09	; 9
    133a:	95 83       	std	Z+5, r25	; 0x05
    133c:	84 83       	std	Z+4, r24	; 0x04
    133e:	81 e1       	ldi	r24, 0x11	; 17
    1340:	9a e0       	ldi	r25, 0x0A	; 10
    1342:	97 83       	std	Z+7, r25	; 0x07
    1344:	86 83       	std	Z+6, r24	; 0x06
    1346:	88 ee       	ldi	r24, 0xE8	; 232
    1348:	98 e0       	ldi	r25, 0x08	; 8
    134a:	91 87       	std	Z+9, r25	; 0x09
    134c:	80 87       	std	Z+8, r24	; 0x08
    134e:	81 ee       	ldi	r24, 0xE1	; 225
    1350:	98 e0       	ldi	r25, 0x08	; 8
    1352:	93 87       	std	Z+11, r25	; 0x0b
    1354:	82 87       	std	Z+10, r24	; 0x0a
}
    1356:	c8 01       	movw	r24, r16
    1358:	ee 96       	adiw	r28, 0x3e	; 62
    135a:	0f b6       	in	r0, 0x3f	; 63
    135c:	f8 94       	cli
    135e:	de bf       	out	0x3e, r29	; 62
    1360:	0f be       	out	0x3f, r0	; 63
    1362:	cd bf       	out	0x3d, r28	; 61
    1364:	df 91       	pop	r29
    1366:	cf 91       	pop	r28
    1368:	1f 91       	pop	r17
    136a:	0f 91       	pop	r16
    136c:	ff 90       	pop	r15
    136e:	ef 90       	pop	r14
    1370:	df 90       	pop	r13
    1372:	cf 90       	pop	r12
    1374:	bf 90       	pop	r11
    1376:	08 95       	ret

00001378 <TWI_wait_twint>:
}

void TWI_wait_twint( uint16_t nticks ) // hardware triggered
{
	unsigned int i;
	for(i = 0; !( twimega328.twi.reg->twcr & (1 << TWINT)); i++ ){ // wait for acknowledgment confirmation bit.
    1378:	e0 91 9c 02 	lds	r30, 0x029C	; 0x80029c <twimega328+0x26>
    137c:	f0 91 9d 02 	lds	r31, 0x029D	; 0x80029d <twimega328+0x27>
    1380:	24 81       	ldd	r18, Z+4	; 0x04
    1382:	22 23       	and	r18, r18
    1384:	44 f0       	brlt	.+16     	; 0x1396 <TWI_wait_twint+0x1e>
    1386:	21 e0       	ldi	r18, 0x01	; 1
    1388:	30 e0       	ldi	r19, 0x00	; 0
		if( i > nticks ) // timeout
    138a:	82 17       	cp	r24, r18
    138c:	93 07       	cpc	r25, r19
    138e:	18 f0       	brcs	.+6      	; 0x1396 <TWI_wait_twint+0x1e>
}

void TWI_wait_twint( uint16_t nticks ) // hardware triggered
{
	unsigned int i;
	for(i = 0; !( twimega328.twi.reg->twcr & (1 << TWINT)); i++ ){ // wait for acknowledgment confirmation bit.
    1390:	2f 5f       	subi	r18, 0xFF	; 255
    1392:	3f 4f       	sbci	r19, 0xFF	; 255
    1394:	fa cf       	rjmp	.-12     	; 0x138a <TWI_wait_twint+0x12>
    1396:	08 95       	ret

00001398 <TWI_start>:
}
// void TWI_Start(void)
void TWI_start(void) // $08
{
	uint8_t cmd = (1 << TWINT) | (1 << TWSTA) | (1 << TWEN);
	twimega328.twi.reg->twcr = cmd;
    1398:	e0 91 9c 02 	lds	r30, 0x029C	; 0x80029c <twimega328+0x26>
    139c:	f0 91 9d 02 	lds	r31, 0x029D	; 0x80029d <twimega328+0x27>
    13a0:	84 ea       	ldi	r24, 0xA4	; 164
    13a2:	84 83       	std	Z+4, r24	; 0x04
	
	TWI_wait_twint( Nticks );
    13a4:	8f ef       	ldi	r24, 0xFF	; 255
    13a6:	93 e0       	ldi	r25, 0x03	; 3
    13a8:	0e 94 bc 09 	call	0x1378	; 0x1378 <TWI_wait_twint>
	
	switch( TWI_status( ) ){
    13ac:	0e 94 e1 08 	call	0x11c2	; 0x11c2 <TWI_status>
    13b0:	88 30       	cpi	r24, 0x08	; 8
    13b2:	11 f0       	breq	.+4      	; 0x13b8 <TWI_start+0x20>
		case TWI_T_START:
			// Do nothing
		break;
		default:
			TWI_stop( ); // error
    13b4:	0e 94 e8 08 	call	0x11d0	; 0x11d0 <TWI_stop>
    13b8:	08 95       	ret

000013ba <TWI_connect>:
}
// void TWI_Connect(uint8_t address, uint8_t rw)
void TWI_connect( uint8_t address, uint8_t rw )
{
	uint8_t cmd = 0;
	if( rw )
    13ba:	66 23       	and	r22, r22
    13bc:	19 f0       	breq	.+6      	; 0x13c4 <TWI_connect+0xa>
		cmd = (address << 1) | (1 << 0);
    13be:	88 0f       	add	r24, r24
    13c0:	81 60       	ori	r24, 0x01	; 1
    13c2:	01 c0       	rjmp	.+2      	; 0x13c6 <TWI_connect+0xc>
	else
		cmd = (address << 1) | (0 << 0);
    13c4:	88 0f       	add	r24, r24
	twimega328.twi.reg->twdr = cmd;
    13c6:	e6 e7       	ldi	r30, 0x76	; 118
    13c8:	f2 e0       	ldi	r31, 0x02	; 2
    13ca:	a6 a1       	ldd	r26, Z+38	; 0x26
    13cc:	b7 a1       	ldd	r27, Z+39	; 0x27
    13ce:	13 96       	adiw	r26, 0x03	; 3
    13d0:	8c 93       	st	X, r24
	
	cmd = (1 << TWINT) | (1 << TWEN);
	twimega328.twi.reg->twcr = cmd;
    13d2:	06 a0       	ldd	r0, Z+38	; 0x26
    13d4:	f7 a1       	ldd	r31, Z+39	; 0x27
    13d6:	e0 2d       	mov	r30, r0
    13d8:	84 e8       	ldi	r24, 0x84	; 132
    13da:	84 83       	std	Z+4, r24	; 0x04
	
	TWI_wait_twint( Nticks );
    13dc:	8f ef       	ldi	r24, 0xFF	; 255
    13de:	93 e0       	ldi	r25, 0x03	; 3
    13e0:	0e 94 bc 09 	call	0x1378	; 0x1378 <TWI_wait_twint>
	
	switch( TWI_status( ) ){
    13e4:	0e 94 e1 08 	call	0x11c2	; 0x11c2 <TWI_status>
    13e8:	88 31       	cpi	r24, 0x18	; 24
    13ea:	21 f0       	breq	.+8      	; 0x13f4 <TWI_connect+0x3a>
    13ec:	80 34       	cpi	r24, 0x40	; 64
    13ee:	11 f0       	breq	.+4      	; 0x13f4 <TWI_connect+0x3a>
		break;
		case TWI_M_SLAR_R_ACK:
			// Do nothing
		break;
		default:
			TWI_stop( ); // error
    13f0:	0e 94 e8 08 	call	0x11d0	; 0x11d0 <TWI_stop>
    13f4:	08 95       	ret

000013f6 <TWI_master_write>:
}
// void TWI_Write(uint8_t var_twiData_u8)
void TWI_master_write( uint8_t var_twiData_u8 )
{
	uint8_t cmd = var_twiData_u8;
	twimega328.twi.reg->twdr = cmd;
    13f6:	e6 e7       	ldi	r30, 0x76	; 118
    13f8:	f2 e0       	ldi	r31, 0x02	; 2
    13fa:	a6 a1       	ldd	r26, Z+38	; 0x26
    13fc:	b7 a1       	ldd	r27, Z+39	; 0x27
    13fe:	13 96       	adiw	r26, 0x03	; 3
    1400:	8c 93       	st	X, r24
	
	cmd = (1 << TWINT) | (1 << TWEN);
	twimega328.twi.reg->twcr = cmd;
    1402:	06 a0       	ldd	r0, Z+38	; 0x26
    1404:	f7 a1       	ldd	r31, Z+39	; 0x27
    1406:	e0 2d       	mov	r30, r0
    1408:	84 e8       	ldi	r24, 0x84	; 132
    140a:	84 83       	std	Z+4, r24	; 0x04
	
	TWI_wait_twint( Nticks );
    140c:	8f ef       	ldi	r24, 0xFF	; 255
    140e:	93 e0       	ldi	r25, 0x03	; 3
    1410:	0e 94 bc 09 	call	0x1378	; 0x1378 <TWI_wait_twint>
	
	switch( TWI_status( ) ){
    1414:	0e 94 e1 08 	call	0x11c2	; 0x11c2 <TWI_status>
    1418:	88 32       	cpi	r24, 0x28	; 40
    141a:	11 f0       	breq	.+4      	; 0x1420 <TWI_master_write+0x2a>
		case TWI_M_DATABYTE_R_ACK:
			// Do nothing
		break;
		default:
			TWI_stop( ); // error
    141c:	0e 94 e8 08 	call	0x11d0	; 0x11d0 <TWI_stop>
    1420:	08 95       	ret

00001422 <TWI_master_read>:
}
// uint8_t TWI_Read(uint8_t ack_nack)
uint8_t TWI_master_read( uint8_t ack_nack )
{
	uint8_t cmd = 0x00;
	if( ack_nack )
    1422:	88 23       	and	r24, r24
    1424:	11 f0       	breq	.+4      	; 0x142a <TWI_master_read+0x8>
		cmd |= ( 1 << TWEA );
    1426:	80 e4       	ldi	r24, 0x40	; 64
    1428:	01 c0       	rjmp	.+2      	; 0x142c <TWI_master_read+0xa>
	}
}
// uint8_t TWI_Read(uint8_t ack_nack)
uint8_t TWI_master_read( uint8_t ack_nack )
{
	uint8_t cmd = 0x00;
    142a:	80 e0       	ldi	r24, 0x00	; 0
	if( ack_nack )
		cmd |= ( 1 << TWEA );
	cmd |= ( 1 << TWINT ) | ( 1 << TWEN );
	twimega328.twi.reg->twcr = cmd;
    142c:	e0 91 9c 02 	lds	r30, 0x029C	; 0x80029c <twimega328+0x26>
    1430:	f0 91 9d 02 	lds	r31, 0x029D	; 0x80029d <twimega328+0x27>
    1434:	84 68       	ori	r24, 0x84	; 132
    1436:	84 83       	std	Z+4, r24	; 0x04
	
	TWI_wait_twint( Nticks );
    1438:	8f ef       	ldi	r24, 0xFF	; 255
    143a:	93 e0       	ldi	r25, 0x03	; 3
    143c:	0e 94 bc 09 	call	0x1378	; 0x1378 <TWI_wait_twint>
	
	switch( TWI_status( ) ){
    1440:	0e 94 e1 08 	call	0x11c2	; 0x11c2 <TWI_status>
    1444:	88 33       	cpi	r24, 0x38	; 56
    1446:	11 f4       	brne	.+4      	; 0x144c <TWI_master_read+0x2a>
		case TWI_ARBLSLARNACK:
			TWI_stop( );
    1448:	0e 94 e8 08 	call	0x11d0	; 0x11d0 <TWI_stop>
		break;
		default:
		break;
	}
	
	cmd = twimega328.twi.reg->twdr;
    144c:	e0 91 9c 02 	lds	r30, 0x029C	; 0x80029c <twimega328+0x26>
    1450:	f0 91 9d 02 	lds	r31, 0x029D	; 0x80029d <twimega328+0x27>
	return cmd;
}
    1454:	83 81       	ldd	r24, Z+3	; 0x03
    1456:	08 95       	ret

00001458 <uart_gets>:
{
	return uart_read();
}
UARTvar* uart_gets(void)
{
	return rxbuff.raw(&rxbuff);
    1458:	e0 91 bd 02 	lds	r30, 0x02BD	; 0x8002bd <rxbuff+0x8>
    145c:	f0 91 be 02 	lds	r31, 0x02BE	; 0x8002be <rxbuff+0x9>
    1460:	85 eb       	ldi	r24, 0xB5	; 181
    1462:	92 e0       	ldi	r25, 0x02	; 2
    1464:	09 95       	icall
}
    1466:	08 95       	ret

00001468 <uart_rxflush>:
void uart_rxflush(void)
{
	rxbuff.flush(&rxbuff);
    1468:	e0 91 bf 02 	lds	r30, 0x02BF	; 0x8002bf <rxbuff+0xa>
    146c:	f0 91 c0 02 	lds	r31, 0x02C0	; 0x8002c0 <rxbuff+0xb>
    1470:	85 eb       	ldi	r24, 0xB5	; 181
    1472:	92 e0       	ldi	r25, 0x02	; 2
    1474:	09 95       	icall
    1476:	08 95       	ret

00001478 <uart_read>:
}

UARTvar uart_read(void)
{
	UARTvar c;
	c = UART_Rx;
    1478:	80 91 ff 02 	lds	r24, 0x02FF	; 0x8002ff <UART_Rx>
	UART_Rx = 0;
    147c:	10 92 ff 02 	sts	0x02FF, r1	; 0x8002ff <UART_Rx>
	#else
		//round up by default
		__ticks_dc = (uint32_t)(ceil(fabs(__tmp)));
	#endif

	__builtin_avr_delay_cycles(__ticks_dc);
    1480:	e9 ef       	ldi	r30, 0xF9	; 249
    1482:	f0 e0       	ldi	r31, 0x00	; 0
    1484:	31 97       	sbiw	r30, 0x01	; 1
    1486:	f1 f7       	brne	.-4      	; 0x1484 <uart_read+0xc>
    1488:	00 c0       	rjmp	.+0      	; 0x148a <uart_read+0x12>
    148a:	00 00       	nop
	_delay_ms(1);
	return c;
}
    148c:	08 95       	ret

0000148e <uart_getch>:
UARTvar uart_getch(void)
{
	return uart_read();
    148e:	0e 94 3c 0a 	call	0x1478	; 0x1478 <uart_read>
}
    1492:	08 95       	ret

00001494 <uart_write>:
{
	rxbuff.flush(&rxbuff);
}
void uart_write(UARTvar data)
{
	uartmega328.usart.reg->udr0 = data;
    1494:	e1 ec       	ldi	r30, 0xC1	; 193
    1496:	f2 e0       	ldi	r31, 0x02	; 2
    1498:	a2 a5       	ldd	r26, Z+42	; 0x2a
    149a:	b3 a5       	ldd	r27, Z+43	; 0x2b
    149c:	16 96       	adiw	r26, 0x06	; 6
    149e:	8c 93       	st	X, r24
	uartmega328.usart.reg->ucsr0b |= _BV(UDRIE0);
    14a0:	02 a4       	ldd	r0, Z+42	; 0x2a
    14a2:	f3 a5       	ldd	r31, Z+43	; 0x2b
    14a4:	e0 2d       	mov	r30, r0
    14a6:	81 81       	ldd	r24, Z+1	; 0x01
    14a8:	80 62       	ori	r24, 0x20	; 32
    14aa:	81 83       	std	Z+1, r24	; 0x01
    14ac:	89 ef       	ldi	r24, 0xF9	; 249
    14ae:	90 e0       	ldi	r25, 0x00	; 0
    14b0:	01 97       	sbiw	r24, 0x01	; 1
    14b2:	f1 f7       	brne	.-4      	; 0x14b0 <uart_write+0x1c>
    14b4:	00 c0       	rjmp	.+0      	; 0x14b6 <uart_write+0x22>
    14b6:	00 00       	nop
    14b8:	08 95       	ret

000014ba <uart_putch>:
	_delay_ms(1);
}
void uart_putch(UARTvar c)
{
	uart_write(c);
    14ba:	0e 94 4a 0a 	call	0x1494	; 0x1494 <uart_write>
    14be:	08 95       	ret

000014c0 <uart_puts>:
}
void uart_puts(UARTvar* s)
{
    14c0:	cf 93       	push	r28
    14c2:	df 93       	push	r29
    14c4:	ec 01       	movw	r28, r24
	char tmp;
	while(*s){
    14c6:	88 81       	ld	r24, Y
    14c8:	88 23       	and	r24, r24
    14ca:	31 f0       	breq	.+12     	; 0x14d8 <uart_puts+0x18>
    14cc:	21 96       	adiw	r28, 0x01	; 1
	uartmega328.usart.reg->ucsr0b |= _BV(UDRIE0);
	_delay_ms(1);
}
void uart_putch(UARTvar c)
{
	uart_write(c);
    14ce:	0e 94 4a 0a 	call	0x1494	; 0x1494 <uart_write>
}
void uart_puts(UARTvar* s)
{
	char tmp;
	while(*s){
    14d2:	89 91       	ld	r24, Y+
    14d4:	81 11       	cpse	r24, r1
    14d6:	fb cf       	rjmp	.-10     	; 0x14ce <uart_puts+0xe>
		tmp = *(s++);
		uart_putch(tmp);
	}
}
    14d8:	df 91       	pop	r29
    14da:	cf 91       	pop	r28
    14dc:	08 95       	ret

000014de <UARTenable>:
void uart_putch(UARTvar c);
void uart_puts(UARTvar* s);

/*** Procedure & Function ***/
UART UARTenable(unsigned int baudrate, unsigned int FDbits, unsigned int Stopbits, unsigned int Parity )
{
    14de:	3f 92       	push	r3
    14e0:	4f 92       	push	r4
    14e2:	5f 92       	push	r5
    14e4:	6f 92       	push	r6
    14e6:	7f 92       	push	r7
    14e8:	8f 92       	push	r8
    14ea:	9f 92       	push	r9
    14ec:	af 92       	push	r10
    14ee:	bf 92       	push	r11
    14f0:	cf 92       	push	r12
    14f2:	df 92       	push	r13
    14f4:	ef 92       	push	r14
    14f6:	ff 92       	push	r15
    14f8:	0f 93       	push	r16
    14fa:	1f 93       	push	r17
    14fc:	cf 93       	push	r28
    14fe:	df 93       	push	r29
    1500:	cd b7       	in	r28, 0x3d	; 61
    1502:	de b7       	in	r29, 0x3e	; 62
    1504:	ee 97       	sbiw	r28, 0x3e	; 62
    1506:	0f b6       	in	r0, 0x3f	; 63
    1508:	f8 94       	cli
    150a:	de bf       	out	0x3e, r29	; 62
    150c:	0f be       	out	0x3f, r0	; 63
    150e:	cd bf       	out	0x3d, r28	; 61
    1510:	7c 01       	movw	r14, r24
    1512:	5b 01       	movw	r10, r22
    1514:	6a 01       	movw	r12, r20
    1516:	29 01       	movw	r4, r18
    1518:	38 01       	movw	r6, r16
	uint8_t tSREG;
	tSREG = uartmega328.cpu.reg->sreg;
    151a:	e0 91 c9 02 	lds	r30, 0x02C9	; 0x8002c9 <uartmega328+0x8>
    151e:	f0 91 ca 02 	lds	r31, 0x02CA	; 0x8002ca <uartmega328+0x9>
    1522:	31 a0       	ldd	r3, Z+33	; 0x21
	uartmega328.cpu.reg->sreg &= ~(1 << GLOBAL_INTERRUPT_ENABLE);
    1524:	83 2d       	mov	r24, r3
    1526:	8f 77       	andi	r24, 0x7F	; 127
    1528:	81 a3       	std	Z+33, r24	; 0x21
	UART uart;
	uartmega328 = ATMEGA328enable();
    152a:	ce 01       	movw	r24, r28
    152c:	01 96       	adiw	r24, 0x01	; 1
    152e:	0e 94 17 03 	call	0x62e	; 0x62e <ATMEGA328enable>
    1532:	8e e3       	ldi	r24, 0x3E	; 62
    1534:	fe 01       	movw	r30, r28
    1536:	31 96       	adiw	r30, 0x01	; 1
    1538:	a1 ec       	ldi	r26, 0xC1	; 193
    153a:	b2 e0       	ldi	r27, 0x02	; 2
    153c:	01 90       	ld	r0, Z+
    153e:	0d 92       	st	X+, r0
    1540:	8a 95       	dec	r24
    1542:	e1 f7       	brne	.-8      	; 0x153c <UARTenable+0x5e>
	rxbuff = BUFFenable(UART_RX_BUFFER_SIZE, UART_RxBuf);
    1544:	40 e0       	ldi	r20, 0x00	; 0
    1546:	53 e0       	ldi	r21, 0x03	; 3
    1548:	60 e1       	ldi	r22, 0x10	; 16
    154a:	ce 01       	movw	r24, r28
    154c:	01 96       	adiw	r24, 0x01	; 1
    154e:	0e 94 87 0c 	call	0x190e	; 0x190e <BUFFenable>
    1552:	8c e0       	ldi	r24, 0x0C	; 12
    1554:	fe 01       	movw	r30, r28
    1556:	31 96       	adiw	r30, 0x01	; 1
    1558:	a5 eb       	ldi	r26, 0xB5	; 181
    155a:	b2 e0       	ldi	r27, 0x02	; 2
    155c:	01 90       	ld	r0, Z+
    155e:	0d 92       	st	X+, r0
    1560:	8a 95       	dec	r24
    1562:	e1 f7       	brne	.-8      	; 0x155c <UARTenable+0x7e>
	uart.rxflush = uart_rxflush;
	uart.write = uart_write;
	uart.putch = uart_putch;
	uart.puts = uart_puts;
	// Set baud rate
	if ( baudrate & 0x8000 ) 
    1564:	bb 20       	and	r11, r11
    1566:	4c f4       	brge	.+18     	; 0x157a <UARTenable+0x9c>
	{
   		uartmega328.usart.reg->ucsr0a = (1 << U2X0);  //Enable 2x speed 
    1568:	e0 91 eb 02 	lds	r30, 0x02EB	; 0x8002eb <uartmega328+0x2a>
    156c:	f0 91 ec 02 	lds	r31, 0x02EC	; 0x8002ec <uartmega328+0x2b>
    1570:	82 e0       	ldi	r24, 0x02	; 2
    1572:	80 83       	st	Z, r24
   		baudrate &= ~0x8000;
    1574:	c5 01       	movw	r24, r10
    1576:	9f 77       	andi	r25, 0x7F	; 127
    1578:	01 c0       	rjmp	.+2      	; 0x157c <UARTenable+0x9e>
    157a:	c5 01       	movw	r24, r10
   	}
	uartmega328.usart.reg->ubrr0 =  uartmega328.writehlbyte(baudrate);
    157c:	01 ec       	ldi	r16, 0xC1	; 193
    157e:	12 e0       	ldi	r17, 0x02	; 2
    1580:	d8 01       	movw	r26, r16
    1582:	9a 96       	adiw	r26, 0x2a	; 42
    1584:	8d 90       	ld	r8, X+
    1586:	9c 90       	ld	r9, X
    1588:	9b 97       	sbiw	r26, 0x2b	; 43
    158a:	d8 96       	adiw	r26, 0x38	; 56
    158c:	ed 91       	ld	r30, X+
    158e:	fc 91       	ld	r31, X
    1590:	d9 97       	sbiw	r26, 0x39	; 57
    1592:	09 95       	icall
    1594:	f4 01       	movw	r30, r8
    1596:	95 83       	std	Z+5, r25	; 0x05
    1598:	84 83       	std	Z+4, r24	; 0x04
	// Enable USART receiver and transmitter and receive complete interrupt
	uartmega328.usart.reg->ucsr0b = _BV(RXCIE0) | (1 << RXEN0) | (1 << TXEN0);
    159a:	d8 01       	movw	r26, r16
    159c:	9a 96       	adiw	r26, 0x2a	; 42
    159e:	ed 91       	ld	r30, X+
    15a0:	fc 91       	ld	r31, X
    15a2:	9b 97       	sbiw	r26, 0x2b	; 43
    15a4:	88 e9       	ldi	r24, 0x98	; 152
    15a6:	81 83       	std	Z+1, r24	; 0x01
		uartmega328.usart.reg->ucsr0c = (1 << URSEL0) | (3 << UCSZ00);
		uart.FDbits = 8;
		uart.Stopbits = 1;
		uart.Parity = 0;
	#else
		switch(FDbits){
    15a8:	b7 e0       	ldi	r27, 0x07	; 7
    15aa:	cb 16       	cp	r12, r27
    15ac:	d1 04       	cpc	r13, r1
    15ae:	d9 f1       	breq	.+118    	; 0x1626 <UARTenable+0x148>
    15b0:	58 f4       	brcc	.+22     	; 0x15c8 <UARTenable+0xea>
    15b2:	f5 e0       	ldi	r31, 0x05	; 5
    15b4:	cf 16       	cp	r12, r31
    15b6:	d1 04       	cpc	r13, r1
    15b8:	09 f4       	brne	.+2      	; 0x15bc <UARTenable+0xde>
    15ba:	6b c0       	rjmp	.+214    	; 0x1692 <UARTenable+0x1b4>
    15bc:	86 e0       	ldi	r24, 0x06	; 6
    15be:	c8 16       	cp	r12, r24
    15c0:	d1 04       	cpc	r13, r1
    15c2:	09 f4       	brne	.+2      	; 0x15c6 <UARTenable+0xe8>
    15c4:	4b c0       	rjmp	.+150    	; 0x165c <UARTenable+0x17e>
    15c6:	78 c0       	rjmp	.+240    	; 0x16b8 <UARTenable+0x1da>
    15c8:	a8 e0       	ldi	r26, 0x08	; 8
    15ca:	ca 16       	cp	r12, r26
    15cc:	d1 04       	cpc	r13, r1
    15ce:	c1 f0       	breq	.+48     	; 0x1600 <UARTenable+0x122>
    15d0:	b9 e0       	ldi	r27, 0x09	; 9
    15d2:	cb 16       	cp	r12, r27
    15d4:	d1 04       	cpc	r13, r1
    15d6:	09 f0       	breq	.+2      	; 0x15da <UARTenable+0xfc>
    15d8:	6f c0       	rjmp	.+222    	; 0x16b8 <UARTenable+0x1da>
			case 9:
				uartmega328.usart.reg->ucsr0b |= (1 << UCSZ02);
    15da:	e1 ec       	ldi	r30, 0xC1	; 193
    15dc:	f2 e0       	ldi	r31, 0x02	; 2
    15de:	a2 a5       	ldd	r26, Z+42	; 0x2a
    15e0:	b3 a5       	ldd	r27, Z+43	; 0x2b
    15e2:	11 96       	adiw	r26, 0x01	; 1
    15e4:	8c 91       	ld	r24, X
    15e6:	11 97       	sbiw	r26, 0x01	; 1
    15e8:	84 60       	ori	r24, 0x04	; 4
    15ea:	11 96       	adiw	r26, 0x01	; 1
    15ec:	8c 93       	st	X, r24
				uartmega328.usart.reg->ucsr0c |= (3 << UCSZ00);
    15ee:	02 a4       	ldd	r0, Z+42	; 0x2a
    15f0:	f3 a5       	ldd	r31, Z+43	; 0x2b
    15f2:	e0 2d       	mov	r30, r0
    15f4:	82 81       	ldd	r24, Z+2	; 0x02
    15f6:	86 60       	ori	r24, 0x06	; 6
    15f8:	82 83       	std	Z+2, r24	; 0x02
				uart.FDbits = 9;
    15fa:	69 e0       	ldi	r22, 0x09	; 9
    15fc:	70 e0       	ldi	r23, 0x00	; 0
			break;
    15fe:	6e c0       	rjmp	.+220    	; 0x16dc <UARTenable+0x1fe>
			case 8:
				uartmega328.usart.reg->ucsr0b &= ~(1 << UCSZ02);
    1600:	e1 ec       	ldi	r30, 0xC1	; 193
    1602:	f2 e0       	ldi	r31, 0x02	; 2
    1604:	a2 a5       	ldd	r26, Z+42	; 0x2a
    1606:	b3 a5       	ldd	r27, Z+43	; 0x2b
    1608:	11 96       	adiw	r26, 0x01	; 1
    160a:	8c 91       	ld	r24, X
    160c:	11 97       	sbiw	r26, 0x01	; 1
    160e:	8b 7f       	andi	r24, 0xFB	; 251
    1610:	11 96       	adiw	r26, 0x01	; 1
    1612:	8c 93       	st	X, r24
				uartmega328.usart.reg->ucsr0c |= (3 << UCSZ00);
    1614:	02 a4       	ldd	r0, Z+42	; 0x2a
    1616:	f3 a5       	ldd	r31, Z+43	; 0x2b
    1618:	e0 2d       	mov	r30, r0
    161a:	82 81       	ldd	r24, Z+2	; 0x02
    161c:	86 60       	ori	r24, 0x06	; 6
    161e:	82 83       	std	Z+2, r24	; 0x02
				uart.FDbits=8;
    1620:	68 e0       	ldi	r22, 0x08	; 8
    1622:	70 e0       	ldi	r23, 0x00	; 0
			break;
    1624:	5b c0       	rjmp	.+182    	; 0x16dc <UARTenable+0x1fe>
			case 7:
				uartmega328.usart.reg->ucsr0b &= ~(1 << UCSZ02);
    1626:	e1 ec       	ldi	r30, 0xC1	; 193
    1628:	f2 e0       	ldi	r31, 0x02	; 2
    162a:	a2 a5       	ldd	r26, Z+42	; 0x2a
    162c:	b3 a5       	ldd	r27, Z+43	; 0x2b
    162e:	11 96       	adiw	r26, 0x01	; 1
    1630:	8c 91       	ld	r24, X
    1632:	11 97       	sbiw	r26, 0x01	; 1
    1634:	8b 7f       	andi	r24, 0xFB	; 251
    1636:	11 96       	adiw	r26, 0x01	; 1
    1638:	8c 93       	st	X, r24
				uartmega328.usart.reg->ucsr0c |= (1 << UCSZ01);
    163a:	a2 a5       	ldd	r26, Z+42	; 0x2a
    163c:	b3 a5       	ldd	r27, Z+43	; 0x2b
    163e:	12 96       	adiw	r26, 0x02	; 2
    1640:	8c 91       	ld	r24, X
    1642:	12 97       	sbiw	r26, 0x02	; 2
    1644:	84 60       	ori	r24, 0x04	; 4
    1646:	12 96       	adiw	r26, 0x02	; 2
    1648:	8c 93       	st	X, r24
				uartmega328.usart.reg->ucsr0c &= ~(1 << UCSZ00);
    164a:	02 a4       	ldd	r0, Z+42	; 0x2a
    164c:	f3 a5       	ldd	r31, Z+43	; 0x2b
    164e:	e0 2d       	mov	r30, r0
    1650:	82 81       	ldd	r24, Z+2	; 0x02
    1652:	8d 7f       	andi	r24, 0xFD	; 253
    1654:	82 83       	std	Z+2, r24	; 0x02
				uart.FDbits=7;
    1656:	67 e0       	ldi	r22, 0x07	; 7
    1658:	70 e0       	ldi	r23, 0x00	; 0
			break;
    165a:	40 c0       	rjmp	.+128    	; 0x16dc <UARTenable+0x1fe>
			case 6:	
				uartmega328.usart.reg->ucsr0b &= ~(1 << UCSZ02);
    165c:	e1 ec       	ldi	r30, 0xC1	; 193
    165e:	f2 e0       	ldi	r31, 0x02	; 2
    1660:	a2 a5       	ldd	r26, Z+42	; 0x2a
    1662:	b3 a5       	ldd	r27, Z+43	; 0x2b
    1664:	11 96       	adiw	r26, 0x01	; 1
    1666:	8c 91       	ld	r24, X
    1668:	11 97       	sbiw	r26, 0x01	; 1
    166a:	8b 7f       	andi	r24, 0xFB	; 251
    166c:	11 96       	adiw	r26, 0x01	; 1
    166e:	8c 93       	st	X, r24
				uartmega328.usart.reg->ucsr0c &= ~(1 << UCSZ01);
    1670:	a2 a5       	ldd	r26, Z+42	; 0x2a
    1672:	b3 a5       	ldd	r27, Z+43	; 0x2b
    1674:	12 96       	adiw	r26, 0x02	; 2
    1676:	8c 91       	ld	r24, X
    1678:	12 97       	sbiw	r26, 0x02	; 2
    167a:	8b 7f       	andi	r24, 0xFB	; 251
    167c:	12 96       	adiw	r26, 0x02	; 2
    167e:	8c 93       	st	X, r24
				uartmega328.usart.reg->ucsr0c |= (1 << UCSZ00);
    1680:	02 a4       	ldd	r0, Z+42	; 0x2a
    1682:	f3 a5       	ldd	r31, Z+43	; 0x2b
    1684:	e0 2d       	mov	r30, r0
    1686:	82 81       	ldd	r24, Z+2	; 0x02
    1688:	82 60       	ori	r24, 0x02	; 2
    168a:	82 83       	std	Z+2, r24	; 0x02
				uart.FDbits = 6;
    168c:	66 e0       	ldi	r22, 0x06	; 6
    168e:	70 e0       	ldi	r23, 0x00	; 0
			break;
    1690:	25 c0       	rjmp	.+74     	; 0x16dc <UARTenable+0x1fe>
			case 5:	
				uartmega328.usart.reg->ucsr0b &= ~(1 << UCSZ02);
    1692:	e1 ec       	ldi	r30, 0xC1	; 193
    1694:	f2 e0       	ldi	r31, 0x02	; 2
    1696:	a2 a5       	ldd	r26, Z+42	; 0x2a
    1698:	b3 a5       	ldd	r27, Z+43	; 0x2b
    169a:	11 96       	adiw	r26, 0x01	; 1
    169c:	8c 91       	ld	r24, X
    169e:	11 97       	sbiw	r26, 0x01	; 1
    16a0:	8b 7f       	andi	r24, 0xFB	; 251
    16a2:	11 96       	adiw	r26, 0x01	; 1
    16a4:	8c 93       	st	X, r24
				uartmega328.usart.reg->ucsr0c &= ~(3 << UCSZ00);
    16a6:	02 a4       	ldd	r0, Z+42	; 0x2a
    16a8:	f3 a5       	ldd	r31, Z+43	; 0x2b
    16aa:	e0 2d       	mov	r30, r0
    16ac:	82 81       	ldd	r24, Z+2	; 0x02
    16ae:	89 7f       	andi	r24, 0xF9	; 249
    16b0:	82 83       	std	Z+2, r24	; 0x02
				uart.FDbits=5;
    16b2:	65 e0       	ldi	r22, 0x05	; 5
    16b4:	70 e0       	ldi	r23, 0x00	; 0
			break;
    16b6:	12 c0       	rjmp	.+36     	; 0x16dc <UARTenable+0x1fe>
			default:
				uartmega328.usart.reg->ucsr0b &= ~(1 << UCSZ02);
    16b8:	e1 ec       	ldi	r30, 0xC1	; 193
    16ba:	f2 e0       	ldi	r31, 0x02	; 2
    16bc:	a2 a5       	ldd	r26, Z+42	; 0x2a
    16be:	b3 a5       	ldd	r27, Z+43	; 0x2b
    16c0:	11 96       	adiw	r26, 0x01	; 1
    16c2:	8c 91       	ld	r24, X
    16c4:	11 97       	sbiw	r26, 0x01	; 1
    16c6:	8b 7f       	andi	r24, 0xFB	; 251
    16c8:	11 96       	adiw	r26, 0x01	; 1
    16ca:	8c 93       	st	X, r24
				uartmega328.usart.reg->ucsr0c |= (3 << UCSZ00);
    16cc:	02 a4       	ldd	r0, Z+42	; 0x2a
    16ce:	f3 a5       	ldd	r31, Z+43	; 0x2b
    16d0:	e0 2d       	mov	r30, r0
    16d2:	82 81       	ldd	r24, Z+2	; 0x02
    16d4:	86 60       	ori	r24, 0x06	; 6
    16d6:	82 83       	std	Z+2, r24	; 0x02
				uart.FDbits = 8;
    16d8:	68 e0       	ldi	r22, 0x08	; 8
    16da:	70 e0       	ldi	r23, 0x00	; 0
			break;
		}
		switch(Stopbits){
    16dc:	e1 e0       	ldi	r30, 0x01	; 1
    16de:	4e 16       	cp	r4, r30
    16e0:	51 04       	cpc	r5, r1
    16e2:	29 f0       	breq	.+10     	; 0x16ee <UARTenable+0x210>
    16e4:	f2 e0       	ldi	r31, 0x02	; 2
    16e6:	4f 16       	cp	r4, r31
    16e8:	51 04       	cpc	r5, r1
    16ea:	59 f0       	breq	.+22     	; 0x1702 <UARTenable+0x224>
    16ec:	14 c0       	rjmp	.+40     	; 0x1716 <UARTenable+0x238>
			case 1:
				uartmega328.usart.reg->ucsr0c &= ~(1 << USBS0);
    16ee:	e0 91 eb 02 	lds	r30, 0x02EB	; 0x8002eb <uartmega328+0x2a>
    16f2:	f0 91 ec 02 	lds	r31, 0x02EC	; 0x8002ec <uartmega328+0x2b>
    16f6:	82 81       	ldd	r24, Z+2	; 0x02
    16f8:	87 7f       	andi	r24, 0xF7	; 247
    16fa:	82 83       	std	Z+2, r24	; 0x02
				uart.Stopbits = 1;
    16fc:	41 e0       	ldi	r20, 0x01	; 1
    16fe:	50 e0       	ldi	r21, 0x00	; 0
			break;
    1700:	13 c0       	rjmp	.+38     	; 0x1728 <UARTenable+0x24a>
			case 2:
				uartmega328.usart.reg->ucsr0c |= (1 << USBS0);
    1702:	e0 91 eb 02 	lds	r30, 0x02EB	; 0x8002eb <uartmega328+0x2a>
    1706:	f0 91 ec 02 	lds	r31, 0x02EC	; 0x8002ec <uartmega328+0x2b>
    170a:	82 81       	ldd	r24, Z+2	; 0x02
    170c:	88 60       	ori	r24, 0x08	; 8
    170e:	82 83       	std	Z+2, r24	; 0x02
				uart.Stopbits=2;
    1710:	42 e0       	ldi	r20, 0x02	; 2
    1712:	50 e0       	ldi	r21, 0x00	; 0
			break;	
    1714:	09 c0       	rjmp	.+18     	; 0x1728 <UARTenable+0x24a>
			default:
				uartmega328.usart.reg->ucsr0c &= ~(1 << USBS0);
    1716:	e0 91 eb 02 	lds	r30, 0x02EB	; 0x8002eb <uartmega328+0x2a>
    171a:	f0 91 ec 02 	lds	r31, 0x02EC	; 0x8002ec <uartmega328+0x2b>
    171e:	82 81       	ldd	r24, Z+2	; 0x02
    1720:	87 7f       	andi	r24, 0xF7	; 247
    1722:	82 83       	std	Z+2, r24	; 0x02
				uart.Stopbits=1;
    1724:	41 e0       	ldi	r20, 0x01	; 1
    1726:	50 e0       	ldi	r21, 0x00	; 0
			break;
		}
		switch(Parity){
    1728:	82 e0       	ldi	r24, 0x02	; 2
    172a:	68 16       	cp	r6, r24
    172c:	71 04       	cpc	r7, r1
    172e:	81 f0       	breq	.+32     	; 0x1750 <UARTenable+0x272>
    1730:	a3 e0       	ldi	r26, 0x03	; 3
    1732:	6a 16       	cp	r6, r26
    1734:	71 04       	cpc	r7, r1
    1736:	f9 f0       	breq	.+62     	; 0x1776 <UARTenable+0x298>
    1738:	67 28       	or	r6, r7
    173a:	39 f5       	brne	.+78     	; 0x178a <UARTenable+0x2ac>
			case 0:
				uartmega328.usart.reg->ucsr0c &= ~(3 << UPM00);
    173c:	e0 91 eb 02 	lds	r30, 0x02EB	; 0x8002eb <uartmega328+0x2a>
    1740:	f0 91 ec 02 	lds	r31, 0x02EC	; 0x8002ec <uartmega328+0x2b>
    1744:	82 81       	ldd	r24, Z+2	; 0x02
    1746:	8f 7c       	andi	r24, 0xCF	; 207
    1748:	82 83       	std	Z+2, r24	; 0x02
				uart.Parity=0;
    174a:	20 e0       	ldi	r18, 0x00	; 0
    174c:	30 e0       	ldi	r19, 0x00	; 0
			break;
    174e:	26 c0       	rjmp	.+76     	; 0x179c <UARTenable+0x2be>
			case 2:
				uartmega328.usart.reg->ucsr0c |= (1 << UPM01);
    1750:	e1 ec       	ldi	r30, 0xC1	; 193
    1752:	f2 e0       	ldi	r31, 0x02	; 2
    1754:	a2 a5       	ldd	r26, Z+42	; 0x2a
    1756:	b3 a5       	ldd	r27, Z+43	; 0x2b
    1758:	12 96       	adiw	r26, 0x02	; 2
    175a:	8c 91       	ld	r24, X
    175c:	12 97       	sbiw	r26, 0x02	; 2
    175e:	80 62       	ori	r24, 0x20	; 32
    1760:	12 96       	adiw	r26, 0x02	; 2
    1762:	8c 93       	st	X, r24
				uartmega328.usart.reg->ucsr0c &= ~(1 << UPM00);
    1764:	02 a4       	ldd	r0, Z+42	; 0x2a
    1766:	f3 a5       	ldd	r31, Z+43	; 0x2b
    1768:	e0 2d       	mov	r30, r0
    176a:	82 81       	ldd	r24, Z+2	; 0x02
    176c:	8f 7e       	andi	r24, 0xEF	; 239
    176e:	82 83       	std	Z+2, r24	; 0x02
				uart.Parity=2;
    1770:	22 e0       	ldi	r18, 0x02	; 2
    1772:	30 e0       	ldi	r19, 0x00	; 0
			break;
    1774:	13 c0       	rjmp	.+38     	; 0x179c <UARTenable+0x2be>
			case 3:
				uartmega328.usart.reg->ucsr0c |= (3 << UPM00);
    1776:	e0 91 eb 02 	lds	r30, 0x02EB	; 0x8002eb <uartmega328+0x2a>
    177a:	f0 91 ec 02 	lds	r31, 0x02EC	; 0x8002ec <uartmega328+0x2b>
    177e:	82 81       	ldd	r24, Z+2	; 0x02
    1780:	80 63       	ori	r24, 0x30	; 48
    1782:	82 83       	std	Z+2, r24	; 0x02
				uart.Parity=3;
    1784:	23 e0       	ldi	r18, 0x03	; 3
    1786:	30 e0       	ldi	r19, 0x00	; 0
			break;
    1788:	09 c0       	rjmp	.+18     	; 0x179c <UARTenable+0x2be>
			default:
				uartmega328.usart.reg->ucsr0c &= ~(3 << UPM00);
    178a:	e0 91 eb 02 	lds	r30, 0x02EB	; 0x8002eb <uartmega328+0x2a>
    178e:	f0 91 ec 02 	lds	r31, 0x02EC	; 0x8002ec <uartmega328+0x2b>
    1792:	82 81       	ldd	r24, Z+2	; 0x02
    1794:	8f 7c       	andi	r24, 0xCF	; 207
    1796:	82 83       	std	Z+2, r24	; 0x02
				uart.Parity=0;
    1798:	20 e0       	ldi	r18, 0x00	; 0
    179a:	30 e0       	ldi	r19, 0x00	; 0
			break;
		}
	#endif
	uartmega328.cpu.reg->sreg = tSREG;
	uartmega328.cpu.reg->sreg |= (1 << GLOBAL_INTERRUPT_ENABLE);
    179c:	e0 91 c9 02 	lds	r30, 0x02C9	; 0x8002c9 <uartmega328+0x8>
    17a0:	f0 91 ca 02 	lds	r31, 0x02CA	; 0x8002ca <uartmega328+0x9>
    17a4:	83 2d       	mov	r24, r3
    17a6:	80 68       	ori	r24, 0x80	; 128
    17a8:	81 a3       	std	Z+33, r24	; 0x21
	return uart;
    17aa:	f7 01       	movw	r30, r14
    17ac:	b1 82       	std	Z+1, r11	; 0x01
    17ae:	a0 82       	st	Z, r10
    17b0:	73 83       	std	Z+3, r23	; 0x03
    17b2:	62 83       	std	Z+2, r22	; 0x02
    17b4:	55 83       	std	Z+5, r21	; 0x05
    17b6:	44 83       	std	Z+4, r20	; 0x04
    17b8:	37 83       	std	Z+7, r19	; 0x07
    17ba:	26 83       	std	Z+6, r18	; 0x06
    17bc:	8c e3       	ldi	r24, 0x3C	; 60
    17be:	9a e0       	ldi	r25, 0x0A	; 10
    17c0:	91 87       	std	Z+9, r25	; 0x09
    17c2:	80 87       	std	Z+8, r24	; 0x08
    17c4:	87 e4       	ldi	r24, 0x47	; 71
    17c6:	9a e0       	ldi	r25, 0x0A	; 10
    17c8:	93 87       	std	Z+11, r25	; 0x0b
    17ca:	82 87       	std	Z+10, r24	; 0x0a
    17cc:	8c e2       	ldi	r24, 0x2C	; 44
    17ce:	9a e0       	ldi	r25, 0x0A	; 10
    17d0:	95 87       	std	Z+13, r25	; 0x0d
    17d2:	84 87       	std	Z+12, r24	; 0x0c
    17d4:	84 e3       	ldi	r24, 0x34	; 52
    17d6:	9a e0       	ldi	r25, 0x0A	; 10
    17d8:	97 87       	std	Z+15, r25	; 0x0f
    17da:	86 87       	std	Z+14, r24	; 0x0e
    17dc:	8a e4       	ldi	r24, 0x4A	; 74
    17de:	9a e0       	ldi	r25, 0x0A	; 10
    17e0:	91 8b       	std	Z+17, r25	; 0x11
    17e2:	80 8b       	std	Z+16, r24	; 0x10
    17e4:	8d e5       	ldi	r24, 0x5D	; 93
    17e6:	9a e0       	ldi	r25, 0x0A	; 10
    17e8:	93 8b       	std	Z+19, r25	; 0x13
    17ea:	82 8b       	std	Z+18, r24	; 0x12
    17ec:	80 e6       	ldi	r24, 0x60	; 96
    17ee:	9a e0       	ldi	r25, 0x0A	; 10
    17f0:	95 8b       	std	Z+21, r25	; 0x15
    17f2:	84 8b       	std	Z+20, r24	; 0x14
}
    17f4:	c7 01       	movw	r24, r14
    17f6:	ee 96       	adiw	r28, 0x3e	; 62
    17f8:	0f b6       	in	r0, 0x3f	; 63
    17fa:	f8 94       	cli
    17fc:	de bf       	out	0x3e, r29	; 62
    17fe:	0f be       	out	0x3f, r0	; 63
    1800:	cd bf       	out	0x3d, r28	; 61
    1802:	df 91       	pop	r29
    1804:	cf 91       	pop	r28
    1806:	1f 91       	pop	r17
    1808:	0f 91       	pop	r16
    180a:	ff 90       	pop	r15
    180c:	ef 90       	pop	r14
    180e:	df 90       	pop	r13
    1810:	cf 90       	pop	r12
    1812:	bf 90       	pop	r11
    1814:	af 90       	pop	r10
    1816:	9f 90       	pop	r9
    1818:	8f 90       	pop	r8
    181a:	7f 90       	pop	r7
    181c:	6f 90       	pop	r6
    181e:	5f 90       	pop	r5
    1820:	4f 90       	pop	r4
    1822:	3f 90       	pop	r3
    1824:	08 95       	ret

00001826 <__vector_18>:
	}
}

/*** File Interrupt ***/
ISR(UART_RX_COMPLETE)
{ // USART, RX Complete Handler
    1826:	1f 92       	push	r1
    1828:	0f 92       	push	r0
    182a:	0f b6       	in	r0, 0x3f	; 63
    182c:	0f 92       	push	r0
    182e:	11 24       	eor	r1, r1
    1830:	2f 93       	push	r18
    1832:	3f 93       	push	r19
    1834:	4f 93       	push	r20
    1836:	5f 93       	push	r21
    1838:	6f 93       	push	r22
    183a:	7f 93       	push	r23
    183c:	8f 93       	push	r24
    183e:	9f 93       	push	r25
    1840:	af 93       	push	r26
    1842:	bf 93       	push	r27
    1844:	ef 93       	push	r30
    1846:	ff 93       	push	r31
	unsigned char bit9;
    unsigned char usr;
	
	usr  = uartmega328.usart.reg->ucsr0a;
    1848:	e0 91 eb 02 	lds	r30, 0x02EB	; 0x8002eb <uartmega328+0x2a>
    184c:	f0 91 ec 02 	lds	r31, 0x02EC	; 0x8002ec <uartmega328+0x2b>
    bit9 = uartmega328.usart.reg->ucsr0b;
    bit9 = 0x01 & (bit9 >> 1);
	
    UART_LastRxError = (usr & (_BV(FE0) | _BV(DOR0)));
    1850:	80 81       	ld	r24, Z
    1852:	88 71       	andi	r24, 0x18	; 24
    1854:	80 93 b4 02 	sts	0x02B4, r24	; 0x8002b4 <UART_LastRxError>
	
	UART_Rx = uartmega328.usart.reg->udr0;
    1858:	66 81       	ldd	r22, Z+6	; 0x06
    185a:	60 93 ff 02 	sts	0x02FF, r22	; 0x8002ff <UART_Rx>
	rxbuff.push(&rxbuff, UART_Rx);
    185e:	e0 91 bb 02 	lds	r30, 0x02BB	; 0x8002bb <rxbuff+0x6>
    1862:	f0 91 bc 02 	lds	r31, 0x02BC	; 0x8002bc <rxbuff+0x7>
    1866:	85 eb       	ldi	r24, 0xB5	; 181
    1868:	92 e0       	ldi	r25, 0x02	; 2
    186a:	09 95       	icall
}
    186c:	ff 91       	pop	r31
    186e:	ef 91       	pop	r30
    1870:	bf 91       	pop	r27
    1872:	af 91       	pop	r26
    1874:	9f 91       	pop	r25
    1876:	8f 91       	pop	r24
    1878:	7f 91       	pop	r23
    187a:	6f 91       	pop	r22
    187c:	5f 91       	pop	r21
    187e:	4f 91       	pop	r20
    1880:	3f 91       	pop	r19
    1882:	2f 91       	pop	r18
    1884:	0f 90       	pop	r0
    1886:	0f be       	out	0x3f, r0	; 63
    1888:	0f 90       	pop	r0
    188a:	1f 90       	pop	r1
    188c:	18 95       	reti

0000188e <__vector_19>:

ISR(UART_UDR_EMPTY)
{ // USART, UDR Empty Handler
    188e:	1f 92       	push	r1
    1890:	0f 92       	push	r0
    1892:	0f b6       	in	r0, 0x3f	; 63
    1894:	0f 92       	push	r0
    1896:	11 24       	eor	r1, r1
    1898:	8f 93       	push	r24
    189a:	ef 93       	push	r30
    189c:	ff 93       	push	r31
	uartmega328.usart.reg->ucsr0b &= ~_BV( UDRIE0 );
    189e:	e0 91 eb 02 	lds	r30, 0x02EB	; 0x8002eb <uartmega328+0x2a>
    18a2:	f0 91 ec 02 	lds	r31, 0x02EC	; 0x8002ec <uartmega328+0x2b>
    18a6:	81 81       	ldd	r24, Z+1	; 0x01
    18a8:	8f 7d       	andi	r24, 0xDF	; 223
    18aa:	81 83       	std	Z+1, r24	; 0x01
}
    18ac:	ff 91       	pop	r31
    18ae:	ef 91       	pop	r30
    18b0:	8f 91       	pop	r24
    18b2:	0f 90       	pop	r0
    18b4:	0f be       	out	0x3f, r0	; 63
    18b6:	0f 90       	pop	r0
    18b8:	1f 90       	pop	r1
    18ba:	18 95       	reti

000018bc <BUFF_push>:
}

void BUFF_push( BUFF* self, BUFFvar data ){
	BUFFvar* head; BUFFvar* next;
	head = self->pos.head;
	if(data){
    18bc:	66 23       	and	r22, r22
    18be:	c1 f0       	breq	.+48     	; 0x18f0 <BUFF_push+0x34>
	return ret; // return copy
}

void BUFF_push( BUFF* self, BUFFvar data ){
	BUFFvar* head; BUFFvar* next;
	head = self->pos.head;
    18c0:	dc 01       	movw	r26, r24
    18c2:	12 96       	adiw	r26, 0x02	; 2
    18c4:	ed 91       	ld	r30, X+
    18c6:	fc 91       	ld	r31, X
    18c8:	13 97       	sbiw	r26, 0x03	; 3
	if(data){
		if( head == self->pos.end ){
    18ca:	14 96       	adiw	r26, 0x04	; 4
    18cc:	2d 91       	ld	r18, X+
    18ce:	3c 91       	ld	r19, X
    18d0:	15 97       	sbiw	r26, 0x05	; 5
    18d2:	e2 17       	cp	r30, r18
    18d4:	f3 07       	cpc	r31, r19
    18d6:	29 f4       	brne	.+10     	; 0x18e2 <BUFF_push+0x26>
			head = self->pos.orig;
    18d8:	ed 91       	ld	r30, X+
    18da:	fc 91       	ld	r31, X
			next = head + 1;
    18dc:	df 01       	movw	r26, r30
    18de:	11 96       	adiw	r26, 0x01	; 1
    18e0:	02 c0       	rjmp	.+4      	; 0x18e6 <BUFF_push+0x2a>
		}else{
			next = head + 1;
    18e2:	df 01       	movw	r26, r30
    18e4:	11 96       	adiw	r26, 0x01	; 1
		}
			*head = data;
    18e6:	60 83       	st	Z, r22
			*next = 0;
    18e8:	1c 92       	st	X, r1
			self->pos.head = next;
    18ea:	fc 01       	movw	r30, r24
    18ec:	b3 83       	std	Z+3, r27	; 0x03
    18ee:	a2 83       	std	Z+2, r26	; 0x02
    18f0:	08 95       	ret

000018f2 <BUFF_raw>:
	}
}

BUFFvar* BUFF_raw( BUFF* self ){
		return self->pos.orig;
}
    18f2:	fc 01       	movw	r30, r24
    18f4:	80 81       	ld	r24, Z
    18f6:	91 81       	ldd	r25, Z+1	; 0x01
    18f8:	08 95       	ret

000018fa <BUFF_flush>:

void BUFF_flush( BUFF* self ){
	BUFFvar* head;
	head = self->pos.orig;
    18fa:	dc 01       	movw	r26, r24
    18fc:	ed 91       	ld	r30, X+
    18fe:	fc 91       	ld	r31, X
    1900:	11 97       	sbiw	r26, 0x01	; 1
	self->pos.head = head;
    1902:	13 96       	adiw	r26, 0x03	; 3
    1904:	fc 93       	st	X, r31
    1906:	ee 93       	st	-X, r30
    1908:	12 97       	sbiw	r26, 0x02	; 2
	*head = 0;
    190a:	10 82       	st	Z, r1
    190c:	08 95       	ret

0000190e <BUFFenable>:
BUFFvar* BUFF_raw(BUFF* self);
void BUFF_flush(BUFF* self);

/*** Procedure & Function ***/
BUFF BUFFenable( uint8_t size_buff, BUFFvar* buff )
{
    190e:	fc 01       	movw	r30, r24
	ret.pos.end = buff + ( size_buff ); // generic
	// function pointers
	ret.push = BUFF_push;
	ret.raw = BUFF_raw;
	ret.flush = BUFF_flush;
	return ret; // return copy
    1910:	51 83       	std	Z+1, r21	; 0x01
    1912:	40 83       	st	Z, r20
    1914:	53 83       	std	Z+3, r21	; 0x03
    1916:	42 83       	std	Z+2, r20	; 0x02
    1918:	46 0f       	add	r20, r22
    191a:	51 1d       	adc	r21, r1
    191c:	55 83       	std	Z+5, r21	; 0x05
    191e:	44 83       	std	Z+4, r20	; 0x04
    1920:	8e e5       	ldi	r24, 0x5E	; 94
    1922:	9c e0       	ldi	r25, 0x0C	; 12
    1924:	97 83       	std	Z+7, r25	; 0x07
    1926:	86 83       	std	Z+6, r24	; 0x06
    1928:	89 e7       	ldi	r24, 0x79	; 121
    192a:	9c e0       	ldi	r25, 0x0C	; 12
    192c:	91 87       	std	Z+9, r25	; 0x09
    192e:	80 87       	std	Z+8, r24	; 0x08
    1930:	8d e7       	ldi	r24, 0x7D	; 125
    1932:	9c e0       	ldi	r25, 0x0C	; 12
    1934:	93 87       	std	Z+11, r25	; 0x0b
    1936:	82 87       	std	Z+10, r24	; 0x0a
}
    1938:	cf 01       	movw	r24, r30
    193a:	08 95       	ret

0000193c <LCD0_strobe>:
			break;
	}
}
void LCD0_strobe(uint16_t num)
{
	*lcd0cmd_PORT &= ~(1 << EN);
    193c:	e0 91 11 03 	lds	r30, 0x0311	; 0x800311 <lcd0cmd_PORT>
    1940:	f0 91 12 03 	lds	r31, 0x0312	; 0x800312 <lcd0cmd_PORT+0x1>
    1944:	80 81       	ld	r24, Z
    1946:	8b 7f       	andi	r24, 0xFB	; 251
    1948:	80 83       	st	Z, r24
	LCD_ticks(num);
	*lcd0cmd_PORT |= (1 << EN);
    194a:	e0 91 11 03 	lds	r30, 0x0311	; 0x800311 <lcd0cmd_PORT>
    194e:	f0 91 12 03 	lds	r31, 0x0312	; 0x800312 <lcd0cmd_PORT+0x1>
    1952:	80 81       	ld	r24, Z
    1954:	84 60       	ori	r24, 0x04	; 4
    1956:	80 83       	st	Z, r24
    1958:	08 95       	ret

0000195a <LCD0_write>:
	// LCD0_write(0x03, INST); // return home
	// _delay_ms(1.53);
	LCD0_gotoxy(0,0);
}
void LCD0_write(char c, unsigned short D_I)
{
    195a:	0f 93       	push	r16
    195c:	1f 93       	push	r17
    195e:	cf 93       	push	r28
    1960:	c8 2f       	mov	r28, r24
    1962:	8b 01       	movw	r16, r22
	*lcd0cmd_PORT &= ~(1 << RW); // lcd as input
    1964:	e0 91 11 03 	lds	r30, 0x0311	; 0x800311 <lcd0cmd_PORT>
    1968:	f0 91 12 03 	lds	r31, 0x0312	; 0x800312 <lcd0cmd_PORT+0x1>
    196c:	80 81       	ld	r24, Z
    196e:	8d 7f       	andi	r24, 0xFD	; 253
    1970:	80 83       	st	Z, r24
	*lcd0data_DDR |= (1 << DB4) | (1 << DB5) | (1 << DB6) | (1 << DB7); // mcu as output
    1972:	e0 91 1a 03 	lds	r30, 0x031A	; 0x80031a <lcd0data_DDR>
    1976:	f0 91 1b 03 	lds	r31, 0x031B	; 0x80031b <lcd0data_DDR+0x1>
    197a:	80 81       	ld	r24, Z
    197c:	8f 60       	ori	r24, 0x0F	; 15
    197e:	80 83       	st	Z, r24
	
	if(D_I) *lcd0cmd_PORT |= (1 << RS); else *lcd0cmd_PORT &= ~(1 << RS);
    1980:	67 2b       	or	r22, r23
    1982:	41 f0       	breq	.+16     	; 0x1994 <LCD0_write+0x3a>
    1984:	e0 91 11 03 	lds	r30, 0x0311	; 0x800311 <lcd0cmd_PORT>
    1988:	f0 91 12 03 	lds	r31, 0x0312	; 0x800312 <lcd0cmd_PORT+0x1>
    198c:	80 81       	ld	r24, Z
    198e:	81 60       	ori	r24, 0x01	; 1
    1990:	80 83       	st	Z, r24
    1992:	07 c0       	rjmp	.+14     	; 0x19a2 <LCD0_write+0x48>
    1994:	e0 91 11 03 	lds	r30, 0x0311	; 0x800311 <lcd0cmd_PORT>
    1998:	f0 91 12 03 	lds	r31, 0x0312	; 0x800312 <lcd0cmd_PORT+0x1>
    199c:	80 81       	ld	r24, Z
    199e:	8e 7f       	andi	r24, 0xFE	; 254
    19a0:	80 83       	st	Z, r24
	LCD0_strobe(LCD_N_TICKS); LCD_ticks(BIT_N_TICKS);
    19a2:	80 e0       	ldi	r24, 0x00	; 0
    19a4:	90 e0       	ldi	r25, 0x00	; 0
    19a6:	0e 94 9e 0c 	call	0x193c	; 0x193c <LCD0_strobe>
	
	if(c & 0x80) *lcd0data_PORT |= 1 << DB7; else *lcd0data_PORT &= ~(1 << DB7); LCD_ticks(BIT_N_TICKS);
    19aa:	cc 23       	and	r28, r28
    19ac:	44 f4       	brge	.+16     	; 0x19be <LCD0_write+0x64>
    19ae:	e0 91 1c 03 	lds	r30, 0x031C	; 0x80031c <lcd0data_PORT>
    19b2:	f0 91 1d 03 	lds	r31, 0x031D	; 0x80031d <lcd0data_PORT+0x1>
    19b6:	80 81       	ld	r24, Z
    19b8:	88 60       	ori	r24, 0x08	; 8
    19ba:	80 83       	st	Z, r24
    19bc:	07 c0       	rjmp	.+14     	; 0x19cc <LCD0_write+0x72>
    19be:	e0 91 1c 03 	lds	r30, 0x031C	; 0x80031c <lcd0data_PORT>
    19c2:	f0 91 1d 03 	lds	r31, 0x031D	; 0x80031d <lcd0data_PORT+0x1>
    19c6:	80 81       	ld	r24, Z
    19c8:	87 7f       	andi	r24, 0xF7	; 247
    19ca:	80 83       	st	Z, r24
	if(c & 0x40) *lcd0data_PORT |= 1 << DB6; else *lcd0data_PORT &= ~(1 << DB6); LCD_ticks(BIT_N_TICKS);
    19cc:	c6 ff       	sbrs	r28, 6
    19ce:	08 c0       	rjmp	.+16     	; 0x19e0 <LCD0_write+0x86>
    19d0:	e0 91 1c 03 	lds	r30, 0x031C	; 0x80031c <lcd0data_PORT>
    19d4:	f0 91 1d 03 	lds	r31, 0x031D	; 0x80031d <lcd0data_PORT+0x1>
    19d8:	80 81       	ld	r24, Z
    19da:	84 60       	ori	r24, 0x04	; 4
    19dc:	80 83       	st	Z, r24
    19de:	07 c0       	rjmp	.+14     	; 0x19ee <LCD0_write+0x94>
    19e0:	e0 91 1c 03 	lds	r30, 0x031C	; 0x80031c <lcd0data_PORT>
    19e4:	f0 91 1d 03 	lds	r31, 0x031D	; 0x80031d <lcd0data_PORT+0x1>
    19e8:	80 81       	ld	r24, Z
    19ea:	8b 7f       	andi	r24, 0xFB	; 251
    19ec:	80 83       	st	Z, r24
	if(c & 0x20) *lcd0data_PORT |= 1 << DB5; else *lcd0data_PORT &= ~(1 << DB5); LCD_ticks(BIT_N_TICKS);
    19ee:	c5 ff       	sbrs	r28, 5
    19f0:	08 c0       	rjmp	.+16     	; 0x1a02 <LCD0_write+0xa8>
    19f2:	e0 91 1c 03 	lds	r30, 0x031C	; 0x80031c <lcd0data_PORT>
    19f6:	f0 91 1d 03 	lds	r31, 0x031D	; 0x80031d <lcd0data_PORT+0x1>
    19fa:	80 81       	ld	r24, Z
    19fc:	82 60       	ori	r24, 0x02	; 2
    19fe:	80 83       	st	Z, r24
    1a00:	07 c0       	rjmp	.+14     	; 0x1a10 <LCD0_write+0xb6>
    1a02:	e0 91 1c 03 	lds	r30, 0x031C	; 0x80031c <lcd0data_PORT>
    1a06:	f0 91 1d 03 	lds	r31, 0x031D	; 0x80031d <lcd0data_PORT+0x1>
    1a0a:	80 81       	ld	r24, Z
    1a0c:	8d 7f       	andi	r24, 0xFD	; 253
    1a0e:	80 83       	st	Z, r24
	if(c & 0x10) *lcd0data_PORT |= 1 << DB4; else *lcd0data_PORT &= ~(1 << DB4); LCD_ticks(BIT_N_TICKS);
    1a10:	c4 ff       	sbrs	r28, 4
    1a12:	08 c0       	rjmp	.+16     	; 0x1a24 <LCD0_write+0xca>
    1a14:	e0 91 1c 03 	lds	r30, 0x031C	; 0x80031c <lcd0data_PORT>
    1a18:	f0 91 1d 03 	lds	r31, 0x031D	; 0x80031d <lcd0data_PORT+0x1>
    1a1c:	80 81       	ld	r24, Z
    1a1e:	81 60       	ori	r24, 0x01	; 1
    1a20:	80 83       	st	Z, r24
    1a22:	07 c0       	rjmp	.+14     	; 0x1a32 <LCD0_write+0xd8>
    1a24:	e0 91 1c 03 	lds	r30, 0x031C	; 0x80031c <lcd0data_PORT>
    1a28:	f0 91 1d 03 	lds	r31, 0x031D	; 0x80031d <lcd0data_PORT+0x1>
    1a2c:	80 81       	ld	r24, Z
    1a2e:	8e 7f       	andi	r24, 0xFE	; 254
    1a30:	80 83       	st	Z, r24
	
	if(D_I) *lcd0cmd_PORT |= (1 << RS); else *lcd0cmd_PORT &= ~(1 << RS);
    1a32:	01 2b       	or	r16, r17
    1a34:	41 f0       	breq	.+16     	; 0x1a46 <LCD0_write+0xec>
    1a36:	e0 91 11 03 	lds	r30, 0x0311	; 0x800311 <lcd0cmd_PORT>
    1a3a:	f0 91 12 03 	lds	r31, 0x0312	; 0x800312 <lcd0cmd_PORT+0x1>
    1a3e:	80 81       	ld	r24, Z
    1a40:	81 60       	ori	r24, 0x01	; 1
    1a42:	80 83       	st	Z, r24
    1a44:	07 c0       	rjmp	.+14     	; 0x1a54 <LCD0_write+0xfa>
    1a46:	e0 91 11 03 	lds	r30, 0x0311	; 0x800311 <lcd0cmd_PORT>
    1a4a:	f0 91 12 03 	lds	r31, 0x0312	; 0x800312 <lcd0cmd_PORT+0x1>
    1a4e:	80 81       	ld	r24, Z
    1a50:	8e 7f       	andi	r24, 0xFE	; 254
    1a52:	80 83       	st	Z, r24
	LCD0_strobe(LCD_N_TICKS); LCD_ticks(BIT_N_TICKS);
    1a54:	80 e0       	ldi	r24, 0x00	; 0
    1a56:	90 e0       	ldi	r25, 0x00	; 0
    1a58:	0e 94 9e 0c 	call	0x193c	; 0x193c <LCD0_strobe>
	
	if(c & 0x08) *lcd0data_PORT |= 1 << DB7; else *lcd0data_PORT &= ~(1 << DB7); LCD_ticks(BIT_N_TICKS);
    1a5c:	c3 ff       	sbrs	r28, 3
    1a5e:	08 c0       	rjmp	.+16     	; 0x1a70 <LCD0_write+0x116>
    1a60:	e0 91 1c 03 	lds	r30, 0x031C	; 0x80031c <lcd0data_PORT>
    1a64:	f0 91 1d 03 	lds	r31, 0x031D	; 0x80031d <lcd0data_PORT+0x1>
    1a68:	80 81       	ld	r24, Z
    1a6a:	88 60       	ori	r24, 0x08	; 8
    1a6c:	80 83       	st	Z, r24
    1a6e:	07 c0       	rjmp	.+14     	; 0x1a7e <LCD0_write+0x124>
    1a70:	e0 91 1c 03 	lds	r30, 0x031C	; 0x80031c <lcd0data_PORT>
    1a74:	f0 91 1d 03 	lds	r31, 0x031D	; 0x80031d <lcd0data_PORT+0x1>
    1a78:	80 81       	ld	r24, Z
    1a7a:	87 7f       	andi	r24, 0xF7	; 247
    1a7c:	80 83       	st	Z, r24
	if(c & 0x04) *lcd0data_PORT |= 1 << DB6; else *lcd0data_PORT &= ~(1 << DB6); LCD_ticks(BIT_N_TICKS);
    1a7e:	c2 ff       	sbrs	r28, 2
    1a80:	08 c0       	rjmp	.+16     	; 0x1a92 <LCD0_write+0x138>
    1a82:	e0 91 1c 03 	lds	r30, 0x031C	; 0x80031c <lcd0data_PORT>
    1a86:	f0 91 1d 03 	lds	r31, 0x031D	; 0x80031d <lcd0data_PORT+0x1>
    1a8a:	80 81       	ld	r24, Z
    1a8c:	84 60       	ori	r24, 0x04	; 4
    1a8e:	80 83       	st	Z, r24
    1a90:	07 c0       	rjmp	.+14     	; 0x1aa0 <LCD0_write+0x146>
    1a92:	e0 91 1c 03 	lds	r30, 0x031C	; 0x80031c <lcd0data_PORT>
    1a96:	f0 91 1d 03 	lds	r31, 0x031D	; 0x80031d <lcd0data_PORT+0x1>
    1a9a:	80 81       	ld	r24, Z
    1a9c:	8b 7f       	andi	r24, 0xFB	; 251
    1a9e:	80 83       	st	Z, r24
	if(c & 0x02) *lcd0data_PORT |= 1 << DB5; else *lcd0data_PORT &= ~(1 << DB5); LCD_ticks(BIT_N_TICKS);
    1aa0:	c1 ff       	sbrs	r28, 1
    1aa2:	08 c0       	rjmp	.+16     	; 0x1ab4 <LCD0_write+0x15a>
    1aa4:	e0 91 1c 03 	lds	r30, 0x031C	; 0x80031c <lcd0data_PORT>
    1aa8:	f0 91 1d 03 	lds	r31, 0x031D	; 0x80031d <lcd0data_PORT+0x1>
    1aac:	80 81       	ld	r24, Z
    1aae:	82 60       	ori	r24, 0x02	; 2
    1ab0:	80 83       	st	Z, r24
    1ab2:	07 c0       	rjmp	.+14     	; 0x1ac2 <LCD0_write+0x168>
    1ab4:	e0 91 1c 03 	lds	r30, 0x031C	; 0x80031c <lcd0data_PORT>
    1ab8:	f0 91 1d 03 	lds	r31, 0x031D	; 0x80031d <lcd0data_PORT+0x1>
    1abc:	80 81       	ld	r24, Z
    1abe:	8d 7f       	andi	r24, 0xFD	; 253
    1ac0:	80 83       	st	Z, r24
	if(c & 0x01) *lcd0data_PORT |= 1 << DB4; else *lcd0data_PORT &= ~(1 << DB4); LCD_ticks(BIT_N_TICKS);
    1ac2:	c0 ff       	sbrs	r28, 0
    1ac4:	08 c0       	rjmp	.+16     	; 0x1ad6 <LCD0_write+0x17c>
    1ac6:	e0 91 1c 03 	lds	r30, 0x031C	; 0x80031c <lcd0data_PORT>
    1aca:	f0 91 1d 03 	lds	r31, 0x031D	; 0x80031d <lcd0data_PORT+0x1>
    1ace:	80 81       	ld	r24, Z
    1ad0:	81 60       	ori	r24, 0x01	; 1
    1ad2:	80 83       	st	Z, r24
    1ad4:	07 c0       	rjmp	.+14     	; 0x1ae4 <LCD0_write+0x18a>
    1ad6:	e0 91 1c 03 	lds	r30, 0x031C	; 0x80031c <lcd0data_PORT>
    1ada:	f0 91 1d 03 	lds	r31, 0x031D	; 0x80031d <lcd0data_PORT+0x1>
    1ade:	80 81       	ld	r24, Z
    1ae0:	8e 7f       	andi	r24, 0xFE	; 254
    1ae2:	80 83       	st	Z, r24
	
	*lcd0cmd_PORT &= ~(1 << EN); LCD_ticks(LCD_N_TICKS);
    1ae4:	e0 91 11 03 	lds	r30, 0x0311	; 0x800311 <lcd0cmd_PORT>
    1ae8:	f0 91 12 03 	lds	r31, 0x0312	; 0x800312 <lcd0cmd_PORT+0x1>
    1aec:	80 81       	ld	r24, Z
    1aee:	8b 7f       	andi	r24, 0xFB	; 251
    1af0:	80 83       	st	Z, r24
}
    1af2:	cf 91       	pop	r28
    1af4:	1f 91       	pop	r17
    1af6:	0f 91       	pop	r16
    1af8:	08 95       	ret

00001afa <LCD0_clear>:
		LCD0_putch(' ');
	}
}
void LCD0_clear(void)
{
	LCD0_write(0x01, INST);
    1afa:	60 e0       	ldi	r22, 0x00	; 0
    1afc:	70 e0       	ldi	r23, 0x00	; 0
    1afe:	81 e0       	ldi	r24, 0x01	; 1
    1b00:	0e 94 ad 0c 	call	0x195a	; 0x195a <LCD0_write>
    1b04:	8e e7       	ldi	r24, 0x7E	; 126
    1b06:	91 e0       	ldi	r25, 0x01	; 1
    1b08:	01 97       	sbiw	r24, 0x01	; 1
    1b0a:	f1 f7       	brne	.-4      	; 0x1b08 <LCD0_clear+0xe>
    1b0c:	00 00       	nop
    1b0e:	08 95       	ret

00001b10 <LCD0_read>:
	if(c & 0x01) *lcd0data_PORT |= 1 << DB4; else *lcd0data_PORT &= ~(1 << DB4); LCD_ticks(BIT_N_TICKS);
	
	*lcd0cmd_PORT &= ~(1 << EN); LCD_ticks(LCD_N_TICKS);
}
char LCD0_read(unsigned short D_I)
{
    1b10:	0f 93       	push	r16
    1b12:	1f 93       	push	r17
    1b14:	cf 93       	push	r28
    1b16:	8c 01       	movw	r16, r24
	char c = 0x00;
	*lcd0data_DDR &= ~((1 << DB4) | (1 << DB5) | (1 << DB6) | (1 << DB7)); // mcu as input
    1b18:	e0 91 1a 03 	lds	r30, 0x031A	; 0x80031a <lcd0data_DDR>
    1b1c:	f0 91 1b 03 	lds	r31, 0x031B	; 0x80031b <lcd0data_DDR+0x1>
    1b20:	80 81       	ld	r24, Z
    1b22:	80 7f       	andi	r24, 0xF0	; 240
    1b24:	80 83       	st	Z, r24
	*lcd0data_PORT |= (1 << DB4) | (1 << DB5) | (1 << DB6) | (1 << DB7); // pull up resistors
    1b26:	e0 91 1c 03 	lds	r30, 0x031C	; 0x80031c <lcd0data_PORT>
    1b2a:	f0 91 1d 03 	lds	r31, 0x031D	; 0x80031d <lcd0data_PORT+0x1>
    1b2e:	80 81       	ld	r24, Z
    1b30:	8f 60       	ori	r24, 0x0F	; 15
    1b32:	80 83       	st	Z, r24
	*lcd0cmd_PORT |= (1 << RW); // lcd as output
    1b34:	e0 91 11 03 	lds	r30, 0x0311	; 0x800311 <lcd0cmd_PORT>
    1b38:	f0 91 12 03 	lds	r31, 0x0312	; 0x800312 <lcd0cmd_PORT+0x1>
    1b3c:	80 81       	ld	r24, Z
    1b3e:	82 60       	ori	r24, 0x02	; 2
    1b40:	80 83       	st	Z, r24
	
	if(D_I) *lcd0cmd_PORT |= (1 << RS); else *lcd0cmd_PORT &= ~(1 << RS);
    1b42:	01 15       	cp	r16, r1
    1b44:	11 05       	cpc	r17, r1
    1b46:	41 f0       	breq	.+16     	; 0x1b58 <LCD0_read+0x48>
    1b48:	e0 91 11 03 	lds	r30, 0x0311	; 0x800311 <lcd0cmd_PORT>
    1b4c:	f0 91 12 03 	lds	r31, 0x0312	; 0x800312 <lcd0cmd_PORT+0x1>
    1b50:	80 81       	ld	r24, Z
    1b52:	81 60       	ori	r24, 0x01	; 1
    1b54:	80 83       	st	Z, r24
    1b56:	07 c0       	rjmp	.+14     	; 0x1b66 <LCD0_read+0x56>
    1b58:	e0 91 11 03 	lds	r30, 0x0311	; 0x800311 <lcd0cmd_PORT>
    1b5c:	f0 91 12 03 	lds	r31, 0x0312	; 0x800312 <lcd0cmd_PORT+0x1>
    1b60:	80 81       	ld	r24, Z
    1b62:	8e 7f       	andi	r24, 0xFE	; 254
    1b64:	80 83       	st	Z, r24
	LCD0_strobe(LCD_N_TICKS); LCD_ticks(BIT_N_TICKS);
    1b66:	80 e0       	ldi	r24, 0x00	; 0
    1b68:	90 e0       	ldi	r25, 0x00	; 0
    1b6a:	0e 94 9e 0c 	call	0x193c	; 0x193c <LCD0_strobe>
	
	if(*lcd0data_PIN & (1 << DB7)) c |= 1 << 7; else c &= ~(1 << 7); LCD_ticks(BIT_N_TICKS);
    1b6e:	e0 91 15 03 	lds	r30, 0x0315	; 0x800315 <lcd0data_PIN>
    1b72:	f0 91 16 03 	lds	r31, 0x0316	; 0x800316 <lcd0data_PIN+0x1>
    1b76:	80 81       	ld	r24, Z
    1b78:	83 fd       	sbrc	r24, 3
    1b7a:	02 c0       	rjmp	.+4      	; 0x1b80 <LCD0_read+0x70>
    1b7c:	c0 e0       	ldi	r28, 0x00	; 0
    1b7e:	01 c0       	rjmp	.+2      	; 0x1b82 <LCD0_read+0x72>
    1b80:	c0 e8       	ldi	r28, 0x80	; 128
	if(*lcd0data_PIN & (1 << DB6)) c |= 1 << 6; else c &= ~(1 << 6); LCD_ticks(BIT_N_TICKS);
    1b82:	80 81       	ld	r24, Z
    1b84:	82 ff       	sbrs	r24, 2
    1b86:	02 c0       	rjmp	.+4      	; 0x1b8c <LCD0_read+0x7c>
    1b88:	c0 64       	ori	r28, 0x40	; 64
    1b8a:	01 c0       	rjmp	.+2      	; 0x1b8e <LCD0_read+0x7e>
    1b8c:	cf 7b       	andi	r28, 0xBF	; 191
	if(*lcd0data_PIN & (1 << DB5)) c |= 1 << 5; else c &= ~(1 << 5); LCD_ticks(BIT_N_TICKS);
    1b8e:	80 81       	ld	r24, Z
    1b90:	81 ff       	sbrs	r24, 1
    1b92:	02 c0       	rjmp	.+4      	; 0x1b98 <LCD0_read+0x88>
    1b94:	c0 62       	ori	r28, 0x20	; 32
    1b96:	01 c0       	rjmp	.+2      	; 0x1b9a <LCD0_read+0x8a>
    1b98:	cf 7d       	andi	r28, 0xDF	; 223
	if(*lcd0data_PIN & (1 << DB4)) c |= 1 << 4; else c &= ~(1 << 4); LCD_ticks(BIT_N_TICKS);
    1b9a:	80 81       	ld	r24, Z
    1b9c:	80 ff       	sbrs	r24, 0
    1b9e:	02 c0       	rjmp	.+4      	; 0x1ba4 <LCD0_read+0x94>
    1ba0:	c0 61       	ori	r28, 0x10	; 16
    1ba2:	01 c0       	rjmp	.+2      	; 0x1ba6 <LCD0_read+0x96>
    1ba4:	cf 7e       	andi	r28, 0xEF	; 239
	
	if(D_I) *lcd0cmd_PORT |= (1 << RS); else *lcd0cmd_PORT &= ~(1 << RS);
    1ba6:	01 2b       	or	r16, r17
    1ba8:	41 f0       	breq	.+16     	; 0x1bba <LCD0_read+0xaa>
    1baa:	e0 91 11 03 	lds	r30, 0x0311	; 0x800311 <lcd0cmd_PORT>
    1bae:	f0 91 12 03 	lds	r31, 0x0312	; 0x800312 <lcd0cmd_PORT+0x1>
    1bb2:	80 81       	ld	r24, Z
    1bb4:	81 60       	ori	r24, 0x01	; 1
    1bb6:	80 83       	st	Z, r24
    1bb8:	07 c0       	rjmp	.+14     	; 0x1bc8 <LCD0_read+0xb8>
    1bba:	e0 91 11 03 	lds	r30, 0x0311	; 0x800311 <lcd0cmd_PORT>
    1bbe:	f0 91 12 03 	lds	r31, 0x0312	; 0x800312 <lcd0cmd_PORT+0x1>
    1bc2:	80 81       	ld	r24, Z
    1bc4:	8e 7f       	andi	r24, 0xFE	; 254
    1bc6:	80 83       	st	Z, r24
	LCD0_strobe(LCD_N_TICKS); LCD_ticks(BIT_N_TICKS);
    1bc8:	80 e0       	ldi	r24, 0x00	; 0
    1bca:	90 e0       	ldi	r25, 0x00	; 0
    1bcc:	0e 94 9e 0c 	call	0x193c	; 0x193c <LCD0_strobe>
	
	if(*lcd0data_PIN & (1 << DB7)) c |= 1 << 3; else c &= ~(1 << 3); LCD_ticks(BIT_N_TICKS);
    1bd0:	e0 91 15 03 	lds	r30, 0x0315	; 0x800315 <lcd0data_PIN>
    1bd4:	f0 91 16 03 	lds	r31, 0x0316	; 0x800316 <lcd0data_PIN+0x1>
    1bd8:	80 81       	ld	r24, Z
    1bda:	83 ff       	sbrs	r24, 3
    1bdc:	03 c0       	rjmp	.+6      	; 0x1be4 <LCD0_read+0xd4>
    1bde:	8c 2f       	mov	r24, r28
    1be0:	88 60       	ori	r24, 0x08	; 8
    1be2:	02 c0       	rjmp	.+4      	; 0x1be8 <LCD0_read+0xd8>
    1be4:	8c 2f       	mov	r24, r28
    1be6:	87 7f       	andi	r24, 0xF7	; 247
	if(*lcd0data_PIN & (1 << DB6)) c |= 1 << 2; else c &= ~(1 << 2); LCD_ticks(BIT_N_TICKS);
    1be8:	90 81       	ld	r25, Z
    1bea:	92 ff       	sbrs	r25, 2
    1bec:	02 c0       	rjmp	.+4      	; 0x1bf2 <LCD0_read+0xe2>
    1bee:	84 60       	ori	r24, 0x04	; 4
    1bf0:	01 c0       	rjmp	.+2      	; 0x1bf4 <LCD0_read+0xe4>
    1bf2:	8b 7f       	andi	r24, 0xFB	; 251
	if(*lcd0data_PIN & (1 << DB5)) c |= 1 << 1; else c &= ~(1 << 1); LCD_ticks(BIT_N_TICKS);
    1bf4:	90 81       	ld	r25, Z
    1bf6:	91 ff       	sbrs	r25, 1
    1bf8:	02 c0       	rjmp	.+4      	; 0x1bfe <LCD0_read+0xee>
    1bfa:	82 60       	ori	r24, 0x02	; 2
    1bfc:	01 c0       	rjmp	.+2      	; 0x1c00 <LCD0_read+0xf0>
    1bfe:	8d 7f       	andi	r24, 0xFD	; 253
	if(*lcd0data_PIN & (1 << DB4)) c |= 1 << 0; else c &= ~(1 << 0); LCD_ticks(BIT_N_TICKS);
    1c00:	90 81       	ld	r25, Z
    1c02:	90 ff       	sbrs	r25, 0
    1c04:	02 c0       	rjmp	.+4      	; 0x1c0a <LCD0_read+0xfa>
    1c06:	81 60       	ori	r24, 0x01	; 1
    1c08:	01 c0       	rjmp	.+2      	; 0x1c0c <LCD0_read+0xfc>
    1c0a:	8e 7f       	andi	r24, 0xFE	; 254
	
	*lcd0cmd_PORT &= ~(1 << EN); LCD_ticks(LCD_N_TICKS);
    1c0c:	e0 91 11 03 	lds	r30, 0x0311	; 0x800311 <lcd0cmd_PORT>
    1c10:	f0 91 12 03 	lds	r31, 0x0312	; 0x800312 <lcd0cmd_PORT+0x1>
    1c14:	90 81       	ld	r25, Z
    1c16:	9b 7f       	andi	r25, 0xFB	; 251
    1c18:	90 83       	st	Z, r25
	
	return c;
}
    1c1a:	cf 91       	pop	r28
    1c1c:	1f 91       	pop	r17
    1c1e:	0f 91       	pop	r16
    1c20:	08 95       	ret

00001c22 <LCD0_BF>:
// it has to read at minimum one equal and exit immediately if not equal, weird property.
{
	uint8_t i;
	char inst = 0x80;
	for(i=0; 0x80 & inst; i++){
		inst = LCD0_read(INST);
    1c22:	80 e0       	ldi	r24, 0x00	; 0
    1c24:	90 e0       	ldi	r25, 0x00	; 0
    1c26:	0e 94 88 0d 	call	0x1b10	; 0x1b10 <LCD0_read>
void LCD0_BF(void)
// it has to read at minimum one equal and exit immediately if not equal, weird property.
{
	uint8_t i;
	char inst = 0x80;
	for(i=0; 0x80 & inst; i++){
    1c2a:	88 23       	and	r24, r24
    1c2c:	54 f4       	brge	.+20     	; 0x1c42 <LCD0_BF+0x20>
		inst = LCD0_read(INST);
    1c2e:	80 e0       	ldi	r24, 0x00	; 0
    1c30:	90 e0       	ldi	r25, 0x00	; 0
    1c32:	0e 94 88 0d 	call	0x1b10	; 0x1b10 <LCD0_read>
void LCD0_BF(void)
// it has to read at minimum one equal and exit immediately if not equal, weird property.
{
	uint8_t i;
	char inst = 0x80;
	for(i=0; 0x80 & inst; i++){
    1c36:	88 23       	and	r24, r24
    1c38:	24 f4       	brge	.+8      	; 0x1c42 <LCD0_BF+0x20>
		inst = LCD0_read(INST);
    1c3a:	80 e0       	ldi	r24, 0x00	; 0
    1c3c:	90 e0       	ldi	r25, 0x00	; 0
    1c3e:	0e 94 88 0d 	call	0x1b10	; 0x1b10 <LCD0_read>
    1c42:	08 95       	ret

00001c44 <LCD0_putch>:
	LCD0_BF();
	return c;
}
void LCD0_putch(char c)
{
	LCD0_write(c, DATA);
    1c44:	61 e0       	ldi	r22, 0x01	; 1
    1c46:	70 e0       	ldi	r23, 0x00	; 0
    1c48:	0e 94 ad 0c 	call	0x195a	; 0x195a <LCD0_write>
	LCD0_BF();
    1c4c:	0e 94 11 0e 	call	0x1c22	; 0x1c22 <LCD0_BF>
    1c50:	08 95       	ret

00001c52 <LCD0_string>:
}
void LCD0_string(const char* s)
{
    1c52:	cf 93       	push	r28
    1c54:	df 93       	push	r29
    1c56:	ec 01       	movw	r28, r24
	char tmp;
	while(*s){
    1c58:	88 81       	ld	r24, Y
    1c5a:	88 23       	and	r24, r24
    1c5c:	31 f0       	breq	.+12     	; 0x1c6a <LCD0_string+0x18>
    1c5e:	21 96       	adiw	r28, 0x01	; 1
		tmp = *(s++);
		LCD0_putch(tmp);
    1c60:	0e 94 22 0e 	call	0x1c44	; 0x1c44 <LCD0_putch>
	LCD0_BF();
}
void LCD0_string(const char* s)
{
	char tmp;
	while(*s){
    1c64:	89 91       	ld	r24, Y+
    1c66:	81 11       	cpse	r24, r1
    1c68:	fb cf       	rjmp	.-10     	; 0x1c60 <LCD0_string+0xe>
		tmp = *(s++);
		LCD0_putch(tmp);
	}
}
    1c6a:	df 91       	pop	r29
    1c6c:	cf 91       	pop	r28
    1c6e:	08 95       	ret

00001c70 <LCD0_string_size>:
void LCD0_string_size(const char* s, uint8_t size)
{
    1c70:	0f 93       	push	r16
    1c72:	1f 93       	push	r17
    1c74:	cf 93       	push	r28
    1c76:	df 93       	push	r29
    1c78:	fc 01       	movw	r30, r24
    1c7a:	d6 2f       	mov	r29, r22
	char tmp;
	uint8_t pos = 0;
	while(*s){
    1c7c:	80 81       	ld	r24, Z
    1c7e:	88 23       	and	r24, r24
    1c80:	51 f0       	breq	.+20     	; 0x1c96 <LCD0_string_size+0x26>
		tmp=*(s++);
    1c82:	8f 01       	movw	r16, r30
    1c84:	0f 5f       	subi	r16, 0xFF	; 255
    1c86:	1f 4f       	sbci	r17, 0xFF	; 255
		pos++;
		if(pos > size) // 1 TO SIZE+1
    1c88:	61 11       	cpse	r22, r1
    1c8a:	09 c0       	rjmp	.+18     	; 0x1c9e <LCD0_string_size+0x2e>
    1c8c:	17 c0       	rjmp	.+46     	; 0x1cbc <LCD0_string_size+0x4c>
{
	char tmp;
	uint8_t pos = 0;
	while(*s){
		tmp=*(s++);
		pos++;
    1c8e:	cf 5f       	subi	r28, 0xFF	; 255
		if(pos > size) // 1 TO SIZE+1
    1c90:	dc 17       	cp	r29, r28
    1c92:	30 f4       	brcc	.+12     	; 0x1ca0 <LCD0_string_size+0x30>
    1c94:	01 c0       	rjmp	.+2      	; 0x1c98 <LCD0_string_size+0x28>
	}
}
void LCD0_string_size(const char* s, uint8_t size)
{
	char tmp;
	uint8_t pos = 0;
    1c96:	c0 e0       	ldi	r28, 0x00	; 0
		pos++;
		if(pos > size) // 1 TO SIZE+1
			break;
		LCD0_putch(tmp);
	}
	while(pos<size){ // TO SIZE
    1c98:	cd 17       	cp	r28, r29
    1c9a:	50 f0       	brcs	.+20     	; 0x1cb0 <LCD0_string_size+0x40>
    1c9c:	0f c0       	rjmp	.+30     	; 0x1cbc <LCD0_string_size+0x4c>
	char tmp;
	uint8_t pos = 0;
	while(*s){
		tmp=*(s++);
		pos++;
		if(pos > size) // 1 TO SIZE+1
    1c9e:	c1 e0       	ldi	r28, 0x01	; 1
			break;
		LCD0_putch(tmp);
    1ca0:	0e 94 22 0e 	call	0x1c44	; 0x1c44 <LCD0_putch>
}
void LCD0_string_size(const char* s, uint8_t size)
{
	char tmp;
	uint8_t pos = 0;
	while(*s){
    1ca4:	f8 01       	movw	r30, r16
    1ca6:	81 91       	ld	r24, Z+
    1ca8:	8f 01       	movw	r16, r30
    1caa:	81 11       	cpse	r24, r1
    1cac:	f0 cf       	rjmp	.-32     	; 0x1c8e <LCD0_string_size+0x1e>
    1cae:	f4 cf       	rjmp	.-24     	; 0x1c98 <LCD0_string_size+0x28>
		if(pos > size) // 1 TO SIZE+1
			break;
		LCD0_putch(tmp);
	}
	while(pos<size){ // TO SIZE
		LCD0_putch(' ');
    1cb0:	80 e2       	ldi	r24, 0x20	; 32
    1cb2:	0e 94 22 0e 	call	0x1c44	; 0x1c44 <LCD0_putch>
		pos++;
    1cb6:	cf 5f       	subi	r28, 0xFF	; 255
		pos++;
		if(pos > size) // 1 TO SIZE+1
			break;
		LCD0_putch(tmp);
	}
	while(pos<size){ // TO SIZE
    1cb8:	cd 17       	cp	r28, r29
    1cba:	d0 f3       	brcs	.-12     	; 0x1cb0 <LCD0_string_size+0x40>
		LCD0_putch(' ');
		pos++;
	}
}
    1cbc:	df 91       	pop	r29
    1cbe:	cf 91       	pop	r28
    1cc0:	1f 91       	pop	r17
    1cc2:	0f 91       	pop	r16
    1cc4:	08 95       	ret

00001cc6 <LCD0_hspace>:
void LCD0_hspace(uint8_t n)
{
    1cc6:	cf 93       	push	r28
    1cc8:	c8 2f       	mov	r28, r24
	for(; n; n--){
    1cca:	88 23       	and	r24, r24
    1ccc:	29 f0       	breq	.+10     	; 0x1cd8 <LCD0_hspace+0x12>
		LCD0_putch(' ');
    1cce:	80 e2       	ldi	r24, 0x20	; 32
    1cd0:	0e 94 22 0e 	call	0x1c44	; 0x1c44 <LCD0_putch>
		pos++;
	}
}
void LCD0_hspace(uint8_t n)
{
	for(; n; n--){
    1cd4:	c1 50       	subi	r28, 0x01	; 1
    1cd6:	d9 f7       	brne	.-10     	; 0x1cce <LCD0_hspace+0x8>
		LCD0_putch(' ');
	}
}
    1cd8:	cf 91       	pop	r28
    1cda:	08 95       	ret

00001cdc <LCD0_gotoxy>:
{
	LCD0_write(0x01, INST);
    _delay_ms(1.53);
}
void LCD0_gotoxy(unsigned int y, unsigned int x)
{
    1cdc:	26 2f       	mov	r18, r22
	switch(y){
    1cde:	81 30       	cpi	r24, 0x01	; 1
    1ce0:	91 05       	cpc	r25, r1
    1ce2:	81 f0       	breq	.+32     	; 0x1d04 <LCD0_gotoxy+0x28>
    1ce4:	30 f0       	brcs	.+12     	; 0x1cf2 <LCD0_gotoxy+0x16>
    1ce6:	82 30       	cpi	r24, 0x02	; 2
    1ce8:	91 05       	cpc	r25, r1
    1cea:	a9 f0       	breq	.+42     	; 0x1d16 <LCD0_gotoxy+0x3a>
    1cec:	03 97       	sbiw	r24, 0x03	; 3
    1cee:	e1 f0       	breq	.+56     	; 0x1d28 <LCD0_gotoxy+0x4c>
    1cf0:	08 95       	ret
		case 0:
			LCD0_write((0x80 + x), INST);
    1cf2:	60 e0       	ldi	r22, 0x00	; 0
    1cf4:	70 e0       	ldi	r23, 0x00	; 0
    1cf6:	80 e8       	ldi	r24, 0x80	; 128
    1cf8:	82 0f       	add	r24, r18
    1cfa:	0e 94 ad 0c 	call	0x195a	; 0x195a <LCD0_write>
			LCD0_BF();
    1cfe:	0e 94 11 0e 	call	0x1c22	; 0x1c22 <LCD0_BF>
			break;
    1d02:	08 95       	ret
		case 1:
			LCD0_write((0xC0 + x), INST);
    1d04:	60 e0       	ldi	r22, 0x00	; 0
    1d06:	70 e0       	ldi	r23, 0x00	; 0
    1d08:	80 ec       	ldi	r24, 0xC0	; 192
    1d0a:	82 0f       	add	r24, r18
    1d0c:	0e 94 ad 0c 	call	0x195a	; 0x195a <LCD0_write>
			LCD0_BF();
    1d10:	0e 94 11 0e 	call	0x1c22	; 0x1c22 <LCD0_BF>
			break;
    1d14:	08 95       	ret
		case 2:
			LCD0_write((0x94 + x), INST); // 0x94
    1d16:	60 e0       	ldi	r22, 0x00	; 0
    1d18:	70 e0       	ldi	r23, 0x00	; 0
    1d1a:	84 e9       	ldi	r24, 0x94	; 148
    1d1c:	82 0f       	add	r24, r18
    1d1e:	0e 94 ad 0c 	call	0x195a	; 0x195a <LCD0_write>
			LCD0_BF();
    1d22:	0e 94 11 0e 	call	0x1c22	; 0x1c22 <LCD0_BF>
			break;
    1d26:	08 95       	ret
		case 3:
			LCD0_write((0xD4 + x), INST); // 0xD4
    1d28:	60 e0       	ldi	r22, 0x00	; 0
    1d2a:	70 e0       	ldi	r23, 0x00	; 0
    1d2c:	84 ed       	ldi	r24, 0xD4	; 212
    1d2e:	82 0f       	add	r24, r18
    1d30:	0e 94 ad 0c 	call	0x195a	; 0x195a <LCD0_write>
			LCD0_BF();
    1d34:	0e 94 11 0e 	call	0x1c22	; 0x1c22 <LCD0_BF>
    1d38:	08 95       	ret

00001d3a <LCD0_inic>:
	return lcd0;
}
void LCD0_inic(void)
{
	// LCD INIC
	*lcd0cmd_DDR |= (1 << RS) | (1 << RW) | (1 << EN) | (0 << NC);
    1d3a:	e0 91 13 03 	lds	r30, 0x0313	; 0x800313 <lcd0cmd_DDR>
    1d3e:	f0 91 14 03 	lds	r31, 0x0314	; 0x800314 <lcd0cmd_DDR+0x1>
    1d42:	80 81       	ld	r24, Z
    1d44:	87 60       	ori	r24, 0x07	; 7
    1d46:	80 83       	st	Z, r24
	*lcd0cmd_PORT |= (1 << NC);
    1d48:	e0 91 11 03 	lds	r30, 0x0311	; 0x800311 <lcd0cmd_PORT>
    1d4c:	f0 91 12 03 	lds	r31, 0x0312	; 0x800312 <lcd0cmd_PORT+0x1>
    1d50:	80 81       	ld	r24, Z
    1d52:	88 60       	ori	r24, 0x08	; 8
    1d54:	80 83       	st	Z, r24
    1d56:	8f e0       	ldi	r24, 0x0F	; 15
    1d58:	97 e2       	ldi	r25, 0x27	; 39
    1d5a:	01 97       	sbiw	r24, 0x01	; 1
    1d5c:	f1 f7       	brne	.-4      	; 0x1d5a <LCD0_inic+0x20>
    1d5e:	00 c0       	rjmp	.+0      	; 0x1d60 <LCD0_inic+0x26>
    1d60:	00 00       	nop
	// INICIALIZACAO LCD datasheet/
	_delay_ms(40); // using clock at 16Mhz
	LCD0_write(0x38, INST); // function set
    1d62:	60 e0       	ldi	r22, 0x00	; 0
    1d64:	70 e0       	ldi	r23, 0x00	; 0
    1d66:	88 e3       	ldi	r24, 0x38	; 56
    1d68:	0e 94 ad 0c 	call	0x195a	; 0x195a <LCD0_write>
	#else
		//round up by default
		__ticks_dc = (uint32_t)(ceil(fabs(__tmp)));
	#endif

	__builtin_avr_delay_cycles(__ticks_dc);
    1d6c:	9d e0       	ldi	r25, 0x0D	; 13
    1d6e:	9a 95       	dec	r25
    1d70:	f1 f7       	brne	.-4      	; 0x1d6e <LCD0_inic+0x34>
	_delay_us(39);
	LCD0_write(0x38, INST); // function set
    1d72:	60 e0       	ldi	r22, 0x00	; 0
    1d74:	70 e0       	ldi	r23, 0x00	; 0
    1d76:	88 e3       	ldi	r24, 0x38	; 56
    1d78:	0e 94 ad 0c 	call	0x195a	; 0x195a <LCD0_write>
    1d7c:	8d e0       	ldi	r24, 0x0D	; 13
    1d7e:	8a 95       	dec	r24
    1d80:	f1 f7       	brne	.-4      	; 0x1d7e <LCD0_inic+0x44>
	_delay_us(39);
	LCD0_write(0x38, INST); // function set
    1d82:	60 e0       	ldi	r22, 0x00	; 0
    1d84:	70 e0       	ldi	r23, 0x00	; 0
    1d86:	88 e3       	ldi	r24, 0x38	; 56
    1d88:	0e 94 ad 0c 	call	0x195a	; 0x195a <LCD0_write>
    1d8c:	9d e0       	ldi	r25, 0x0D	; 13
    1d8e:	9a 95       	dec	r25
    1d90:	f1 f7       	brne	.-4      	; 0x1d8e <LCD0_inic+0x54>
	_delay_us(39);
	LCD0_write(0x28, INST); // function set 2B
    1d92:	60 e0       	ldi	r22, 0x00	; 0
    1d94:	70 e0       	ldi	r23, 0x00	; 0
    1d96:	88 e2       	ldi	r24, 0x28	; 40
    1d98:	0e 94 ad 0c 	call	0x195a	; 0x195a <LCD0_write>
    1d9c:	8c e0       	ldi	r24, 0x0C	; 12
    1d9e:	8a 95       	dec	r24
    1da0:	f1 f7       	brne	.-4      	; 0x1d9e <LCD0_inic+0x64>
    1da2:	00 00       	nop
	_delay_us(37);
	LCD0_write(0x28, INST); // function set 2B
    1da4:	60 e0       	ldi	r22, 0x00	; 0
    1da6:	70 e0       	ldi	r23, 0x00	; 0
    1da8:	88 e2       	ldi	r24, 0x28	; 40
    1daa:	0e 94 ad 0c 	call	0x195a	; 0x195a <LCD0_write>
    1dae:	9c e0       	ldi	r25, 0x0C	; 12
    1db0:	9a 95       	dec	r25
    1db2:	f1 f7       	brne	.-4      	; 0x1db0 <LCD0_inic+0x76>
    1db4:	00 00       	nop
	_delay_us(37);
	/**************************************/
	// for(repeat = 2 ; repeat ; repeat--){
	// repeat twice in 4 bit length
	LCD0_write(0x28, INST); // function set 2B
    1db6:	60 e0       	ldi	r22, 0x00	; 0
    1db8:	70 e0       	ldi	r23, 0x00	; 0
    1dba:	88 e2       	ldi	r24, 0x28	; 40
    1dbc:	0e 94 ad 0c 	call	0x195a	; 0x195a <LCD0_write>
	LCD0_BF();
    1dc0:	0e 94 11 0e 	call	0x1c22	; 0x1c22 <LCD0_BF>
	LCD0_write(0x28, INST); // function set 2B
    1dc4:	60 e0       	ldi	r22, 0x00	; 0
    1dc6:	70 e0       	ldi	r23, 0x00	; 0
    1dc8:	88 e2       	ldi	r24, 0x28	; 40
    1dca:	0e 94 ad 0c 	call	0x195a	; 0x195a <LCD0_write>
	LCD0_BF();
    1dce:	0e 94 11 0e 	call	0x1c22	; 0x1c22 <LCD0_BF>

	LCD0_write(0x0C, INST); // display on/off control
    1dd2:	60 e0       	ldi	r22, 0x00	; 0
    1dd4:	70 e0       	ldi	r23, 0x00	; 0
    1dd6:	8c e0       	ldi	r24, 0x0C	; 12
    1dd8:	0e 94 ad 0c 	call	0x195a	; 0x195a <LCD0_write>
	LCD0_BF();
    1ddc:	0e 94 11 0e 	call	0x1c22	; 0x1c22 <LCD0_BF>
	LCD0_write(0x0C, INST); // display on/off control
    1de0:	60 e0       	ldi	r22, 0x00	; 0
    1de2:	70 e0       	ldi	r23, 0x00	; 0
    1de4:	8c e0       	ldi	r24, 0x0C	; 12
    1de6:	0e 94 ad 0c 	call	0x195a	; 0x195a <LCD0_write>
	LCD0_BF();
    1dea:	0e 94 11 0e 	call	0x1c22	; 0x1c22 <LCD0_BF>

	LCD0_write(0x01, INST); // clear display
    1dee:	60 e0       	ldi	r22, 0x00	; 0
    1df0:	70 e0       	ldi	r23, 0x00	; 0
    1df2:	81 e0       	ldi	r24, 0x01	; 1
    1df4:	0e 94 ad 0c 	call	0x195a	; 0x195a <LCD0_write>
	LCD0_BF();
    1df8:	0e 94 11 0e 	call	0x1c22	; 0x1c22 <LCD0_BF>
	LCD0_write(0x01, INST); // clear display
    1dfc:	60 e0       	ldi	r22, 0x00	; 0
    1dfe:	70 e0       	ldi	r23, 0x00	; 0
    1e00:	81 e0       	ldi	r24, 0x01	; 1
    1e02:	0e 94 ad 0c 	call	0x195a	; 0x195a <LCD0_write>
	LCD0_BF();
    1e06:	0e 94 11 0e 	call	0x1c22	; 0x1c22 <LCD0_BF>

	LCD0_write(0x06, INST); // entry mode set (crazy settings)
    1e0a:	60 e0       	ldi	r22, 0x00	; 0
    1e0c:	70 e0       	ldi	r23, 0x00	; 0
    1e0e:	86 e0       	ldi	r24, 0x06	; 6
    1e10:	0e 94 ad 0c 	call	0x195a	; 0x195a <LCD0_write>
	LCD0_BF();
    1e14:	0e 94 11 0e 	call	0x1c22	; 0x1c22 <LCD0_BF>
	LCD0_write(0x06, INST); // entry mode set (crazy settings)
    1e18:	60 e0       	ldi	r22, 0x00	; 0
    1e1a:	70 e0       	ldi	r23, 0x00	; 0
    1e1c:	86 e0       	ldi	r24, 0x06	; 6
    1e1e:	0e 94 ad 0c 	call	0x195a	; 0x195a <LCD0_write>
	LCD0_BF();
    1e22:	0e 94 11 0e 	call	0x1c22	; 0x1c22 <LCD0_BF>
	// INICIALIZATION END
	// LCD0_write(0x1F, INST); // cursor or display shift
	// _delay_us(39);
	// LCD0_write(0x03, INST); // return home
	// _delay_ms(1.53);
	LCD0_gotoxy(0,0);
    1e26:	60 e0       	ldi	r22, 0x00	; 0
    1e28:	70 e0       	ldi	r23, 0x00	; 0
    1e2a:	80 e0       	ldi	r24, 0x00	; 0
    1e2c:	90 e0       	ldi	r25, 0x00	; 0
    1e2e:	0e 94 6e 0e 	call	0x1cdc	; 0x1cdc <LCD0_gotoxy>
    1e32:	08 95       	ret

00001e34 <LCD0enable>:
void LCD0_reboot(void);
void LCD_ticks(uint16_t num);

/*** Procedure & Function ***/
LCD0 LCD0enable(volatile uint8_t *cmdddr, volatile uint8_t *cmdpin, volatile uint8_t *cmdport, volatile uint8_t *dataddr, volatile uint8_t *datapin, volatile uint8_t *dataport)
{
    1e34:	cf 92       	push	r12
    1e36:	df 92       	push	r13
    1e38:	ef 92       	push	r14
    1e3a:	ff 92       	push	r15
    1e3c:	0f 93       	push	r16
    1e3e:	1f 93       	push	r17
    1e40:	cf 93       	push	r28
    1e42:	df 93       	push	r29
    1e44:	ec 01       	movw	r28, r24
	// LOCAL VARIABLES
	// ALLOCAÇÂO MEMORIA PARA Estrutura
	LCD0 lcd0;
	// import parameters
	lcd0cmd_DDR = cmdddr;
    1e46:	70 93 14 03 	sts	0x0314, r23	; 0x800314 <lcd0cmd_DDR+0x1>
    1e4a:	60 93 13 03 	sts	0x0313, r22	; 0x800313 <lcd0cmd_DDR>
	lcd0cmd_PIN = cmdpin;
    1e4e:	50 93 19 03 	sts	0x0319, r21	; 0x800319 <lcd0cmd_PIN+0x1>
    1e52:	40 93 18 03 	sts	0x0318, r20	; 0x800318 <lcd0cmd_PIN>
	lcd0cmd_PORT = cmdport;
    1e56:	30 93 12 03 	sts	0x0312, r19	; 0x800312 <lcd0cmd_PORT+0x1>
    1e5a:	20 93 11 03 	sts	0x0311, r18	; 0x800311 <lcd0cmd_PORT>
	lcd0data_DDR = dataddr;
    1e5e:	10 93 1b 03 	sts	0x031B, r17	; 0x80031b <lcd0data_DDR+0x1>
    1e62:	00 93 1a 03 	sts	0x031A, r16	; 0x80031a <lcd0data_DDR>
	lcd0data_PIN = datapin;
    1e66:	f0 92 16 03 	sts	0x0316, r15	; 0x800316 <lcd0data_PIN+0x1>
    1e6a:	e0 92 15 03 	sts	0x0315, r14	; 0x800315 <lcd0data_PIN>
	lcd0data_PORT = dataport;
    1e6e:	d0 92 1d 03 	sts	0x031D, r13	; 0x80031d <lcd0data_PORT+0x1>
    1e72:	c0 92 1c 03 	sts	0x031C, r12	; 0x80031c <lcd0data_PORT>
	// initialize variables
	*lcd0cmd_DDR = 0x00;
    1e76:	fb 01       	movw	r30, r22
    1e78:	10 82       	st	Z, r1
	*lcd0cmd_PORT = 0xFF;
    1e7a:	e0 91 11 03 	lds	r30, 0x0311	; 0x800311 <lcd0cmd_PORT>
    1e7e:	f0 91 12 03 	lds	r31, 0x0312	; 0x800312 <lcd0cmd_PORT+0x1>
    1e82:	8f ef       	ldi	r24, 0xFF	; 255
    1e84:	80 83       	st	Z, r24
	*lcd0data_DDR = 0x00;
    1e86:	e0 91 1a 03 	lds	r30, 0x031A	; 0x80031a <lcd0data_DDR>
    1e8a:	f0 91 1b 03 	lds	r31, 0x031B	; 0x80031b <lcd0data_DDR+0x1>
    1e8e:	10 82       	st	Z, r1
	*lcd0data_PORT = 0xFF;
    1e90:	e0 91 1c 03 	lds	r30, 0x031C	; 0x80031c <lcd0data_PORT>
    1e94:	f0 91 1d 03 	lds	r31, 0x031D	; 0x80031d <lcd0data_PORT+0x1>
    1e98:	80 83       	st	Z, r24
	lcd0_detect = *lcd0cmd_PIN & (1 << NC);
    1e9a:	e0 91 18 03 	lds	r30, 0x0318	; 0x800318 <lcd0cmd_PIN>
    1e9e:	f0 91 19 03 	lds	r31, 0x0319	; 0x800319 <lcd0cmd_PIN+0x1>
    1ea2:	80 81       	ld	r24, Z
    1ea4:	88 70       	andi	r24, 0x08	; 8
    1ea6:	80 93 17 03 	sts	0x0317, r24	; 0x800317 <lcd0_detect>
	lcd0.hspace = LCD0_hspace;
	lcd0.clear = LCD0_clear;
	lcd0.gotoxy = LCD0_gotoxy;
	lcd0.reboot = LCD0_reboot;
	// LCD INIC
	LCD0_inic();
    1eaa:	0e 94 9d 0e 	call	0x1d3a	; 0x1d3a <LCD0_inic>
	
	return lcd0;
    1eae:	8d ea       	ldi	r24, 0xAD	; 173
    1eb0:	9c e0       	ldi	r25, 0x0C	; 12
    1eb2:	99 83       	std	Y+1, r25	; 0x01
    1eb4:	88 83       	st	Y, r24
    1eb6:	88 e8       	ldi	r24, 0x88	; 136
    1eb8:	9d e0       	ldi	r25, 0x0D	; 13
    1eba:	9b 83       	std	Y+3, r25	; 0x03
    1ebc:	8a 83       	std	Y+2, r24	; 0x02
    1ebe:	81 e1       	ldi	r24, 0x11	; 17
    1ec0:	9e e0       	ldi	r25, 0x0E	; 14
    1ec2:	9d 83       	std	Y+5, r25	; 0x05
    1ec4:	8c 83       	std	Y+4, r24	; 0x04
    1ec6:	82 e2       	ldi	r24, 0x22	; 34
    1ec8:	9e e0       	ldi	r25, 0x0E	; 14
    1eca:	9f 83       	std	Y+7, r25	; 0x07
    1ecc:	8e 83       	std	Y+6, r24	; 0x06
    1ece:	8f e9       	ldi	r24, 0x9F	; 159
    1ed0:	9f e0       	ldi	r25, 0x0F	; 15
    1ed2:	99 87       	std	Y+9, r25	; 0x09
    1ed4:	88 87       	std	Y+8, r24	; 0x08
    1ed6:	89 e2       	ldi	r24, 0x29	; 41
    1ed8:	9e e0       	ldi	r25, 0x0E	; 14
    1eda:	9b 87       	std	Y+11, r25	; 0x0b
    1edc:	8a 87       	std	Y+10, r24	; 0x0a
    1ede:	88 e3       	ldi	r24, 0x38	; 56
    1ee0:	9e e0       	ldi	r25, 0x0E	; 14
    1ee2:	9d 87       	std	Y+13, r25	; 0x0d
    1ee4:	8c 87       	std	Y+12, r24	; 0x0c
    1ee6:	83 e6       	ldi	r24, 0x63	; 99
    1ee8:	9e e0       	ldi	r25, 0x0E	; 14
    1eea:	9f 87       	std	Y+15, r25	; 0x0f
    1eec:	8e 87       	std	Y+14, r24	; 0x0e
    1eee:	8d e7       	ldi	r24, 0x7D	; 125
    1ef0:	9d e0       	ldi	r25, 0x0D	; 13
    1ef2:	99 8b       	std	Y+17, r25	; 0x11
    1ef4:	88 8b       	std	Y+16, r24	; 0x10
    1ef6:	8e e6       	ldi	r24, 0x6E	; 110
    1ef8:	9e e0       	ldi	r25, 0x0E	; 14
    1efa:	9b 8b       	std	Y+19, r25	; 0x13
    1efc:	8a 8b       	std	Y+18, r24	; 0x12
    1efe:	8d e8       	ldi	r24, 0x8D	; 141
    1f00:	9f e0       	ldi	r25, 0x0F	; 15
    1f02:	9d 8b       	std	Y+21, r25	; 0x15
    1f04:	8c 8b       	std	Y+20, r24	; 0x14
}
    1f06:	ce 01       	movw	r24, r28
    1f08:	df 91       	pop	r29
    1f0a:	cf 91       	pop	r28
    1f0c:	1f 91       	pop	r17
    1f0e:	0f 91       	pop	r16
    1f10:	ff 90       	pop	r15
    1f12:	ef 90       	pop	r14
    1f14:	df 90       	pop	r13
    1f16:	cf 90       	pop	r12
    1f18:	08 95       	ret

00001f1a <LCD0_reboot>:
	*lcd0cmd_PORT &= ~(1 << EN);
	LCD_ticks(num);
	*lcd0cmd_PORT |= (1 << EN);
}
void LCD0_reboot(void)
{
    1f1a:	cf 93       	push	r28
	// low high detect pin NC
	uint8_t i;
	uint8_t tmp;
	tmp = *lcd0cmd_PIN & (1 << NC);
    1f1c:	e0 91 18 03 	lds	r30, 0x0318	; 0x800318 <lcd0cmd_PIN>
    1f20:	f0 91 19 03 	lds	r31, 0x0319	; 0x800319 <lcd0cmd_PIN+0x1>
    1f24:	c0 81       	ld	r28, Z
    1f26:	c8 70       	andi	r28, 0x08	; 8
	i = tmp ^ lcd0_detect;
    1f28:	80 91 17 03 	lds	r24, 0x0317	; 0x800317 <lcd0_detect>
    1f2c:	8c 27       	eor	r24, r28
	i &= tmp;
	if(i)
    1f2e:	8c 23       	and	r24, r28
    1f30:	11 f0       	breq	.+4      	; 0x1f36 <LCD0_reboot+0x1c>
		LCD0_inic();
    1f32:	0e 94 9d 0e 	call	0x1d3a	; 0x1d3a <LCD0_inic>
	lcd0_detect = tmp;
    1f36:	c0 93 17 03 	sts	0x0317, r28	; 0x800317 <lcd0_detect>
}
    1f3a:	cf 91       	pop	r28
    1f3c:	08 95       	ret

00001f3e <LCD0_getch>:
		if(i > 1)
			break;
	}
}
char LCD0_getch(void)
{
    1f3e:	cf 93       	push	r28
	char c;
	c = LCD0_read(DATA);
    1f40:	81 e0       	ldi	r24, 0x01	; 1
    1f42:	90 e0       	ldi	r25, 0x00	; 0
    1f44:	0e 94 88 0d 	call	0x1b10	; 0x1b10 <LCD0_read>
    1f48:	c8 2f       	mov	r28, r24
	LCD0_BF();
    1f4a:	0e 94 11 0e 	call	0x1c22	; 0x1c22 <LCD0_BF>
	return c;
}
    1f4e:	8c 2f       	mov	r24, r28
    1f50:	cf 91       	pop	r28
    1f52:	08 95       	ret

00001f54 <main>:
/***File Header***/
void PORTINIT(void);

/***Procedure & Function****/
int main(void)
{
    1f54:	cf 93       	push	r28
    1f56:	df 93       	push	r29
    1f58:	cd b7       	in	r28, 0x3d	; 61
    1f5a:	de b7       	in	r29, 0x3e	; 62
    1f5c:	ac 97       	sbiw	r28, 0x2c	; 44
    1f5e:	0f b6       	in	r0, 0x3f	; 63
    1f60:	f8 94       	cli
    1f62:	de bf       	out	0x3e, r29	; 62
    1f64:	0f be       	out	0x3f, r0	; 63
    1f66:	cd bf       	out	0x3d, r28	; 61
	/***Preamble***/
	/***Local Variable***/
	//FUNC func = FUNCenable();
	LCD0 lcd = LCD0enable(&DDRB,&PINB,&PORTB, &DDRC,&PINC,&PORTC);
    1f68:	0f 2e       	mov	r0, r31
    1f6a:	f8 e2       	ldi	r31, 0x28	; 40
    1f6c:	cf 2e       	mov	r12, r31
    1f6e:	d1 2c       	mov	r13, r1
    1f70:	f0 2d       	mov	r31, r0
    1f72:	0f 2e       	mov	r0, r31
    1f74:	f6 e2       	ldi	r31, 0x26	; 38
    1f76:	ef 2e       	mov	r14, r31
    1f78:	f1 2c       	mov	r15, r1
    1f7a:	f0 2d       	mov	r31, r0
    1f7c:	07 e2       	ldi	r16, 0x27	; 39
    1f7e:	10 e0       	ldi	r17, 0x00	; 0
    1f80:	25 e2       	ldi	r18, 0x25	; 37
    1f82:	30 e0       	ldi	r19, 0x00	; 0
    1f84:	43 e2       	ldi	r20, 0x23	; 35
    1f86:	50 e0       	ldi	r21, 0x00	; 0
    1f88:	64 e2       	ldi	r22, 0x24	; 36
    1f8a:	70 e0       	ldi	r23, 0x00	; 0
    1f8c:	ce 01       	movw	r24, r28
    1f8e:	01 96       	adiw	r24, 0x01	; 1
    1f90:	0e 94 1a 0f 	call	0x1e34	; 0x1e34 <LCD0enable>
	//HC595 shift = HC595enable(&DDRB,&PORTB,3,1,0); //REMEMBER!!!
	UART uart = UARTenable(103,8,1,NONE);
    1f94:	00 e0       	ldi	r16, 0x00	; 0
    1f96:	10 e0       	ldi	r17, 0x00	; 0
    1f98:	21 e0       	ldi	r18, 0x01	; 1
    1f9a:	30 e0       	ldi	r19, 0x00	; 0
    1f9c:	48 e0       	ldi	r20, 0x08	; 8
    1f9e:	50 e0       	ldi	r21, 0x00	; 0
    1fa0:	67 e6       	ldi	r22, 0x67	; 103
    1fa2:	70 e0       	ldi	r23, 0x00	; 0
    1fa4:	ce 01       	movw	r24, r28
    1fa6:	47 96       	adiw	r24, 0x17	; 23
    1fa8:	0e 94 6f 0a 	call	0x14de	; 0x14de <UARTenable>
    1fac:	0b a5       	ldd	r16, Y+43	; 0x2b
    1fae:	1c a5       	ldd	r17, Y+44	; 0x2c
	/***Local Variable***/
	//char* uartreceive;
    /* Replace with your application code */
    while (TRUE)
    {
		lcd.gotoxy(0,0);
    1fb0:	eb 89       	ldd	r30, Y+19	; 0x13
    1fb2:	fc 89       	ldd	r31, Y+20	; 0x14
    1fb4:	60 e0       	ldi	r22, 0x00	; 0
    1fb6:	70 e0       	ldi	r23, 0x00	; 0
    1fb8:	80 e0       	ldi	r24, 0x00	; 0
    1fba:	90 e0       	ldi	r25, 0x00	; 0
    1fbc:	09 95       	icall
		lcd.string_size("Welcome",7);
    1fbe:	ed 85       	ldd	r30, Y+13	; 0x0d
    1fc0:	fe 85       	ldd	r31, Y+14	; 0x0e
    1fc2:	67 e0       	ldi	r22, 0x07	; 7
    1fc4:	80 e0       	ldi	r24, 0x00	; 0
    1fc6:	91 e0       	ldi	r25, 0x01	; 1
    1fc8:	09 95       	icall
		if(!(PIND & 0x04))
    1fca:	4a 99       	sbic	0x09, 2	; 9
    1fcc:	f1 cf       	rjmp	.-30     	; 0x1fb0 <main+0x5c>
		{
			uart.putch('>');
    1fce:	e9 a5       	ldd	r30, Y+41	; 0x29
    1fd0:	fa a5       	ldd	r31, Y+42	; 0x2a
    1fd2:	8e e3       	ldi	r24, 0x3E	; 62
    1fd4:	09 95       	icall
			uart.puts("Welcome to uart com threw ftdi ! \r \n");
    1fd6:	88 e0       	ldi	r24, 0x08	; 8
    1fd8:	91 e0       	ldi	r25, 0x01	; 1
    1fda:	f8 01       	movw	r30, r16
    1fdc:	09 95       	icall
			uart.puts("AAAAAAAAAAAAAAAAAAAAAAAAAAAAAA ! \r \n");
    1fde:	8d e2       	ldi	r24, 0x2D	; 45
    1fe0:	91 e0       	ldi	r25, 0x01	; 1
    1fe2:	f8 01       	movw	r30, r16
    1fe4:	09 95       	icall
    1fe6:	e4 cf       	rjmp	.-56     	; 0x1fb0 <main+0x5c>

00001fe8 <__udivmodsi4>:
    1fe8:	a1 e2       	ldi	r26, 0x21	; 33
    1fea:	1a 2e       	mov	r1, r26
    1fec:	aa 1b       	sub	r26, r26
    1fee:	bb 1b       	sub	r27, r27
    1ff0:	fd 01       	movw	r30, r26
    1ff2:	0d c0       	rjmp	.+26     	; 0x200e <__udivmodsi4_ep>

00001ff4 <__udivmodsi4_loop>:
    1ff4:	aa 1f       	adc	r26, r26
    1ff6:	bb 1f       	adc	r27, r27
    1ff8:	ee 1f       	adc	r30, r30
    1ffa:	ff 1f       	adc	r31, r31
    1ffc:	a2 17       	cp	r26, r18
    1ffe:	b3 07       	cpc	r27, r19
    2000:	e4 07       	cpc	r30, r20
    2002:	f5 07       	cpc	r31, r21
    2004:	20 f0       	brcs	.+8      	; 0x200e <__udivmodsi4_ep>
    2006:	a2 1b       	sub	r26, r18
    2008:	b3 0b       	sbc	r27, r19
    200a:	e4 0b       	sbc	r30, r20
    200c:	f5 0b       	sbc	r31, r21

0000200e <__udivmodsi4_ep>:
    200e:	66 1f       	adc	r22, r22
    2010:	77 1f       	adc	r23, r23
    2012:	88 1f       	adc	r24, r24
    2014:	99 1f       	adc	r25, r25
    2016:	1a 94       	dec	r1
    2018:	69 f7       	brne	.-38     	; 0x1ff4 <__udivmodsi4_loop>
    201a:	60 95       	com	r22
    201c:	70 95       	com	r23
    201e:	80 95       	com	r24
    2020:	90 95       	com	r25
    2022:	9b 01       	movw	r18, r22
    2024:	ac 01       	movw	r20, r24
    2026:	bd 01       	movw	r22, r26
    2028:	cf 01       	movw	r24, r30
    202a:	08 95       	ret

0000202c <__tablejump2__>:
    202c:	ee 0f       	add	r30, r30
    202e:	ff 1f       	adc	r31, r31
    2030:	05 90       	lpm	r0, Z+
    2032:	f4 91       	lpm	r31, Z
    2034:	e0 2d       	mov	r30, r0
    2036:	09 94       	ijmp

00002038 <_exit>:
    2038:	f8 94       	cli

0000203a <__stop_program>:
    203a:	ff cf       	rjmp	.-2      	; 0x203a <__stop_program>
